Archive member included to satisfy reference by file (symbol)

c:/intelfpga_lite/23.1std/nios2eds/bin/gnu/h-x86_64-mingw32/bin/../lib/gcc/nios2-elf/12.3.1/../../../../../H-x86_64-mingw32/nios2-elf/lib\libm.a(libm_a-w_exp.o)
                              obj/default/main.o (exp)
c:/intelfpga_lite/23.1std/nios2eds/bin/gnu/h-x86_64-mingw32/bin/../lib/gcc/nios2-elf/12.3.1/../../../../../H-x86_64-mingw32/nios2-elf/lib\libm.a(libm_a-s_finite.o)
                              c:/intelfpga_lite/23.1std/nios2eds/bin/gnu/h-x86_64-mingw32/bin/../lib/gcc/nios2-elf/12.3.1/../../../../../H-x86_64-mingw32/nios2-elf/lib\libm.a(libm_a-w_exp.o) (finite)
c:/intelfpga_lite/23.1std/nios2eds/bin/gnu/h-x86_64-mingw32/bin/../lib/gcc/nios2-elf/12.3.1/../../../../../H-x86_64-mingw32/nios2-elf/lib\libm.a(libm_a-e_exp.o)
                              c:/intelfpga_lite/23.1std/nios2eds/bin/gnu/h-x86_64-mingw32/bin/../lib/gcc/nios2-elf/12.3.1/../../../../../H-x86_64-mingw32/nios2-elf/lib\libm.a(libm_a-w_exp.o) (__ieee754_exp)
c:/intelfpga_lite/23.1std/nios2eds/bin/gnu/h-x86_64-mingw32/bin/../lib/gcc/nios2-elf/12.3.1/../../../../../H-x86_64-mingw32/nios2-elf/lib\libm.a(libm_a-math_err.o)
                              c:/intelfpga_lite/23.1std/nios2eds/bin/gnu/h-x86_64-mingw32/bin/../lib/gcc/nios2-elf/12.3.1/../../../../../H-x86_64-mingw32/nios2-elf/lib\libm.a(libm_a-e_exp.o) (__math_uflow)
c:/intelfpga_lite/23.1std/nios2eds/bin/gnu/h-x86_64-mingw32/bin/../lib/gcc/nios2-elf/12.3.1\libgcc.a(lib2-divmod.o)
                              obj/default/main.o (__divsi3)
c:/intelfpga_lite/23.1std/nios2eds/bin/gnu/h-x86_64-mingw32/bin/../lib/gcc/nios2-elf/12.3.1\libgcc.a(addsf3.o)
                              obj/default/main.o (__addsf3)
c:/intelfpga_lite/23.1std/nios2eds/bin/gnu/h-x86_64-mingw32/bin/../lib/gcc/nios2-elf/12.3.1\libgcc.a(divsf3.o)
                              obj/default/main.o (__divsf3)
c:/intelfpga_lite/23.1std/nios2eds/bin/gnu/h-x86_64-mingw32/bin/../lib/gcc/nios2-elf/12.3.1\libgcc.a(gesf2.o)
                              obj/default/main.o (__gtsf2)
c:/intelfpga_lite/23.1std/nios2eds/bin/gnu/h-x86_64-mingw32/bin/../lib/gcc/nios2-elf/12.3.1\libgcc.a(lesf2.o)
                              obj/default/main.o (__ltsf2)
c:/intelfpga_lite/23.1std/nios2eds/bin/gnu/h-x86_64-mingw32/bin/../lib/gcc/nios2-elf/12.3.1\libgcc.a(mulsf3.o)
                              obj/default/image.o (__mulsf3)
c:/intelfpga_lite/23.1std/nios2eds/bin/gnu/h-x86_64-mingw32/bin/../lib/gcc/nios2-elf/12.3.1\libgcc.a(subsf3.o)
                              obj/default/main.o (__subsf3)
c:/intelfpga_lite/23.1std/nios2eds/bin/gnu/h-x86_64-mingw32/bin/../lib/gcc/nios2-elf/12.3.1\libgcc.a(floatunsisf.o)
                              obj/default/image.o (__floatunsisf)
c:/intelfpga_lite/23.1std/nios2eds/bin/gnu/h-x86_64-mingw32/bin/../lib/gcc/nios2-elf/12.3.1\libgcc.a(adddf3.o)
                              c:/intelfpga_lite/23.1std/nios2eds/bin/gnu/h-x86_64-mingw32/bin/../lib/gcc/nios2-elf/12.3.1/../../../../../H-x86_64-mingw32/nios2-elf/lib\libm.a(libm_a-e_exp.o) (__adddf3)
c:/intelfpga_lite/23.1std/nios2eds/bin/gnu/h-x86_64-mingw32/bin/../lib/gcc/nios2-elf/12.3.1\libgcc.a(divdf3.o)
                              c:/intelfpga_lite/23.1std/nios2eds/bin/gnu/h-x86_64-mingw32/bin/../lib/gcc/nios2-elf/12.3.1/../../../../../H-x86_64-mingw32/nios2-elf/lib\libm.a(libm_a-e_exp.o) (__divdf3)
c:/intelfpga_lite/23.1std/nios2eds/bin/gnu/h-x86_64-mingw32/bin/../lib/gcc/nios2-elf/12.3.1\libgcc.a(eqdf2.o)
                              c:/intelfpga_lite/23.1std/nios2eds/bin/gnu/h-x86_64-mingw32/bin/../lib/gcc/nios2-elf/12.3.1/../../../../../H-x86_64-mingw32/nios2-elf/lib\libm.a(libm_a-math_err.o) (__nedf2)
c:/intelfpga_lite/23.1std/nios2eds/bin/gnu/h-x86_64-mingw32/bin/../lib/gcc/nios2-elf/12.3.1\libgcc.a(gedf2.o)
                              c:/intelfpga_lite/23.1std/nios2eds/bin/gnu/h-x86_64-mingw32/bin/../lib/gcc/nios2-elf/12.3.1/../../../../../H-x86_64-mingw32/nios2-elf/lib\libm.a(libm_a-w_exp.o) (__gtdf2)
c:/intelfpga_lite/23.1std/nios2eds/bin/gnu/h-x86_64-mingw32/bin/../lib/gcc/nios2-elf/12.3.1\libgcc.a(ledf2.o)
                              c:/intelfpga_lite/23.1std/nios2eds/bin/gnu/h-x86_64-mingw32/bin/../lib/gcc/nios2-elf/12.3.1/../../../../../H-x86_64-mingw32/nios2-elf/lib\libm.a(libm_a-math_err.o) (__ledf2)
c:/intelfpga_lite/23.1std/nios2eds/bin/gnu/h-x86_64-mingw32/bin/../lib/gcc/nios2-elf/12.3.1\libgcc.a(muldf3.o)
                              c:/intelfpga_lite/23.1std/nios2eds/bin/gnu/h-x86_64-mingw32/bin/../lib/gcc/nios2-elf/12.3.1/../../../../../H-x86_64-mingw32/nios2-elf/lib\libm.a(libm_a-e_exp.o) (__muldf3)
c:/intelfpga_lite/23.1std/nios2eds/bin/gnu/h-x86_64-mingw32/bin/../lib/gcc/nios2-elf/12.3.1\libgcc.a(subdf3.o)
                              c:/intelfpga_lite/23.1std/nios2eds/bin/gnu/h-x86_64-mingw32/bin/../lib/gcc/nios2-elf/12.3.1/../../../../../H-x86_64-mingw32/nios2-elf/lib\libm.a(libm_a-e_exp.o) (__subdf3)
c:/intelfpga_lite/23.1std/nios2eds/bin/gnu/h-x86_64-mingw32/bin/../lib/gcc/nios2-elf/12.3.1\libgcc.a(unorddf2.o)
                              c:/intelfpga_lite/23.1std/nios2eds/bin/gnu/h-x86_64-mingw32/bin/../lib/gcc/nios2-elf/12.3.1/../../../../../H-x86_64-mingw32/nios2-elf/lib\libm.a(libm_a-math_err.o) (__unorddf2)
c:/intelfpga_lite/23.1std/nios2eds/bin/gnu/h-x86_64-mingw32/bin/../lib/gcc/nios2-elf/12.3.1\libgcc.a(fixdfsi.o)
                              c:/intelfpga_lite/23.1std/nios2eds/bin/gnu/h-x86_64-mingw32/bin/../lib/gcc/nios2-elf/12.3.1/../../../../../H-x86_64-mingw32/nios2-elf/lib\libm.a(libm_a-e_exp.o) (__fixdfsi)
c:/intelfpga_lite/23.1std/nios2eds/bin/gnu/h-x86_64-mingw32/bin/../lib/gcc/nios2-elf/12.3.1\libgcc.a(floatsidf.o)
                              c:/intelfpga_lite/23.1std/nios2eds/bin/gnu/h-x86_64-mingw32/bin/../lib/gcc/nios2-elf/12.3.1/../../../../../H-x86_64-mingw32/nios2-elf/lib\libm.a(libm_a-e_exp.o) (__floatsidf)
c:/intelfpga_lite/23.1std/nios2eds/bin/gnu/h-x86_64-mingw32/bin/../lib/gcc/nios2-elf/12.3.1\libgcc.a(extendsfdf2.o)
                              obj/default/image.o (__extendsfdf2)
c:/intelfpga_lite/23.1std/nios2eds/bin/gnu/h-x86_64-mingw32/bin/../lib/gcc/nios2-elf/12.3.1\libgcc.a(truncdfsf2.o)
                              obj/default/main.o (__truncdfsf2)
c:/intelfpga_lite/23.1std/nios2eds/bin/gnu/h-x86_64-mingw32/bin/../lib/gcc/nios2-elf/12.3.1\libgcc.a(_clzsi2.o)
                              c:/intelfpga_lite/23.1std/nios2eds/bin/gnu/h-x86_64-mingw32/bin/../lib/gcc/nios2-elf/12.3.1\libgcc.a(addsf3.o) (__clzsi2)
c:/intelfpga_lite/23.1std/nios2eds/bin/gnu/h-x86_64-mingw32/bin/../lib/gcc/nios2-elf/12.3.1\libgcc.a(_clz.o)
                              c:/intelfpga_lite/23.1std/nios2eds/bin/gnu/h-x86_64-mingw32/bin/../lib/gcc/nios2-elf/12.3.1\libgcc.a(_clzsi2.o) (__clz_tab)
c:/intelfpga_lite/23.1std/nios2eds/bin/gnu/h-x86_64-mingw32/bin/../lib/gcc/nios2-elf/12.3.1/../../../../../H-x86_64-mingw32/nios2-elf/lib\libc.a(libc_a-exit.o)
                              obj/default/main.o (exit)
c:/intelfpga_lite/23.1std/nios2eds/bin/gnu/h-x86_64-mingw32/bin/../lib/gcc/nios2-elf/12.3.1/../../../../../H-x86_64-mingw32/nios2-elf/lib\libc.a(libc_a-fclose.o)
                              obj/default/main.o (fclose)
c:/intelfpga_lite/23.1std/nios2eds/bin/gnu/h-x86_64-mingw32/bin/../lib/gcc/nios2-elf/12.3.1/../../../../../H-x86_64-mingw32/nios2-elf/lib\libc.a(libc_a-fflush.o)
                              c:/intelfpga_lite/23.1std/nios2eds/bin/gnu/h-x86_64-mingw32/bin/../lib/gcc/nios2-elf/12.3.1/../../../../../H-x86_64-mingw32/nios2-elf/lib\libc.a(libc_a-fclose.o) (__sflush_r)
c:/intelfpga_lite/23.1std/nios2eds/bin/gnu/h-x86_64-mingw32/bin/../lib/gcc/nios2-elf/12.3.1/../../../../../H-x86_64-mingw32/nios2-elf/lib\libc.a(libc_a-findfp.o)
                              c:/intelfpga_lite/23.1std/nios2eds/bin/gnu/h-x86_64-mingw32/bin/../lib/gcc/nios2-elf/12.3.1/../../../../../H-x86_64-mingw32/nios2-elf/lib\libc.a(libc_a-fflush.o) (__sglue)
c:/intelfpga_lite/23.1std/nios2eds/bin/gnu/h-x86_64-mingw32/bin/../lib/gcc/nios2-elf/12.3.1/../../../../../H-x86_64-mingw32/nios2-elf/lib\libc.a(libc_a-fopen.o)
                              obj/default/main.o (fopen)
c:/intelfpga_lite/23.1std/nios2eds/bin/gnu/h-x86_64-mingw32/bin/../lib/gcc/nios2-elf/12.3.1/../../../../../H-x86_64-mingw32/nios2-elf/lib\libc.a(libc_a-fread.o)
                              obj/default/main.o (fread)
c:/intelfpga_lite/23.1std/nios2eds/bin/gnu/h-x86_64-mingw32/bin/../lib/gcc/nios2-elf/12.3.1/../../../../../H-x86_64-mingw32/nios2-elf/lib\libc.a(libc_a-fseek.o)
                              c:/intelfpga_lite/23.1std/nios2eds/bin/gnu/h-x86_64-mingw32/bin/../lib/gcc/nios2-elf/12.3.1/../../../../../H-x86_64-mingw32/nios2-elf/lib\libc.a(libc_a-fopen.o) (_fseek_r)
c:/intelfpga_lite/23.1std/nios2eds/bin/gnu/h-x86_64-mingw32/bin/../lib/gcc/nios2-elf/12.3.1/../../../../../H-x86_64-mingw32/nios2-elf/lib\libc.a(libc_a-fwalk.o)
                              c:/intelfpga_lite/23.1std/nios2eds/bin/gnu/h-x86_64-mingw32/bin/../lib/gcc/nios2-elf/12.3.1/../../../../../H-x86_64-mingw32/nios2-elf/lib\libc.a(libc_a-fflush.o) (_fwalk_sglue)
c:/intelfpga_lite/23.1std/nios2eds/bin/gnu/h-x86_64-mingw32/bin/../lib/gcc/nios2-elf/12.3.1/../../../../../H-x86_64-mingw32/nios2-elf/lib\libc.a(libc_a-printf.o)
                              obj/default/image.o (printf)
c:/intelfpga_lite/23.1std/nios2eds/bin/gnu/h-x86_64-mingw32/bin/../lib/gcc/nios2-elf/12.3.1/../../../../../H-x86_64-mingw32/nios2-elf/lib\libc.a(libc_a-putchar.o)
                              obj/default/image.o (putchar)
c:/intelfpga_lite/23.1std/nios2eds/bin/gnu/h-x86_64-mingw32/bin/../lib/gcc/nios2-elf/12.3.1/../../../../../H-x86_64-mingw32/nios2-elf/lib\libc.a(libc_a-puts.o)
                              obj/default/image.o (puts)
c:/intelfpga_lite/23.1std/nios2eds/bin/gnu/h-x86_64-mingw32/bin/../lib/gcc/nios2-elf/12.3.1/../../../../../H-x86_64-mingw32/nios2-elf/lib\libc.a(libc_a-refill.o)
                              c:/intelfpga_lite/23.1std/nios2eds/bin/gnu/h-x86_64-mingw32/bin/../lib/gcc/nios2-elf/12.3.1/../../../../../H-x86_64-mingw32/nios2-elf/lib\libc.a(libc_a-fread.o) (__srefill_r)
c:/intelfpga_lite/23.1std/nios2eds/bin/gnu/h-x86_64-mingw32/bin/../lib/gcc/nios2-elf/12.3.1/../../../../../H-x86_64-mingw32/nios2-elf/lib\libc.a(libc_a-stdio.o)
                              c:/intelfpga_lite/23.1std/nios2eds/bin/gnu/h-x86_64-mingw32/bin/../lib/gcc/nios2-elf/12.3.1/../../../../../H-x86_64-mingw32/nios2-elf/lib\libc.a(libc_a-findfp.o) (__sread)
c:/intelfpga_lite/23.1std/nios2eds/bin/gnu/h-x86_64-mingw32/bin/../lib/gcc/nios2-elf/12.3.1/../../../../../H-x86_64-mingw32/nios2-elf/lib\libc.a(libc_a-fseeko.o)
                              c:/intelfpga_lite/23.1std/nios2eds/bin/gnu/h-x86_64-mingw32/bin/../lib/gcc/nios2-elf/12.3.1/../../../../../H-x86_64-mingw32/nios2-elf/lib\libc.a(libc_a-fseek.o) (_fseeko_r)
c:/intelfpga_lite/23.1std/nios2eds/bin/gnu/h-x86_64-mingw32/bin/../lib/gcc/nios2-elf/12.3.1/../../../../../H-x86_64-mingw32/nios2-elf/lib\libc.a(libc_a-memcpy.o)
                              c:/intelfpga_lite/23.1std/nios2eds/bin/gnu/h-x86_64-mingw32/bin/../lib/gcc/nios2-elf/12.3.1/../../../../../H-x86_64-mingw32/nios2-elf/lib\libc.a(libc_a-fread.o) (memcpy)
c:/intelfpga_lite/23.1std/nios2eds/bin/gnu/h-x86_64-mingw32/bin/../lib/gcc/nios2-elf/12.3.1/../../../../../H-x86_64-mingw32/nios2-elf/lib\libc.a(libc_a-memset.o)
                              c:/intelfpga_lite/23.1std/nios2eds/bin/gnu/h-x86_64-mingw32/bin/../lib/gcc/nios2-elf/12.3.1/../../../../../H-x86_64-mingw32/nios2-elf/lib\libc.a(libc_a-findfp.o) (memset)
c:/intelfpga_lite/23.1std/nios2eds/bin/gnu/h-x86_64-mingw32/bin/../lib/gcc/nios2-elf/12.3.1/../../../../../H-x86_64-mingw32/nios2-elf/lib\libc.a(libc_a-strlen.o)
                              c:/intelfpga_lite/23.1std/nios2eds/bin/gnu/h-x86_64-mingw32/bin/../lib/gcc/nios2-elf/12.3.1/../../../../../H-x86_64-mingw32/nios2-elf/lib\libc.a(libc_a-puts.o) (strlen)
c:/intelfpga_lite/23.1std/nios2eds/bin/gnu/h-x86_64-mingw32/bin/../lib/gcc/nios2-elf/12.3.1/../../../../../H-x86_64-mingw32/nios2-elf/lib\libc.a(libc_a-closer.o)
                              c:/intelfpga_lite/23.1std/nios2eds/bin/gnu/h-x86_64-mingw32/bin/../lib/gcc/nios2-elf/12.3.1/../../../../../H-x86_64-mingw32/nios2-elf/lib\libc.a(libc_a-stdio.o) (_close_r)
c:/intelfpga_lite/23.1std/nios2eds/bin/gnu/h-x86_64-mingw32/bin/../lib/gcc/nios2-elf/12.3.1/../../../../../H-x86_64-mingw32/nios2-elf/lib\libc.a(libc_a-reent.o)
                              c:/intelfpga_lite/23.1std/nios2eds/bin/gnu/h-x86_64-mingw32/bin/../lib/gcc/nios2-elf/12.3.1/../../../../../H-x86_64-mingw32/nios2-elf/lib\libc.a(libc_a-closer.o) (errno)
c:/intelfpga_lite/23.1std/nios2eds/bin/gnu/h-x86_64-mingw32/bin/../lib/gcc/nios2-elf/12.3.1/../../../../../H-x86_64-mingw32/nios2-elf/lib\libc.a(libc_a-impure.o)
                              c:/intelfpga_lite/23.1std/nios2eds/bin/gnu/h-x86_64-mingw32/bin/../lib/gcc/nios2-elf/12.3.1/../../../../../H-x86_64-mingw32/nios2-elf/lib\libc.a(libc_a-fclose.o) (_impure_ptr)
c:/intelfpga_lite/23.1std/nios2eds/bin/gnu/h-x86_64-mingw32/bin/../lib/gcc/nios2-elf/12.3.1/../../../../../H-x86_64-mingw32/nios2-elf/lib\libc.a(libc_a-fstatr.o)
                              c:/intelfpga_lite/23.1std/nios2eds/bin/gnu/h-x86_64-mingw32/bin/../lib/gcc/nios2-elf/12.3.1/../../../../../H-x86_64-mingw32/nios2-elf/lib\libc.a(libc_a-fseeko.o) (_fstat_r)
c:/intelfpga_lite/23.1std/nios2eds/bin/gnu/h-x86_64-mingw32/bin/../lib/gcc/nios2-elf/12.3.1/../../../../../H-x86_64-mingw32/nios2-elf/lib\libc.a(libc_a-lseekr.o)
                              c:/intelfpga_lite/23.1std/nios2eds/bin/gnu/h-x86_64-mingw32/bin/../lib/gcc/nios2-elf/12.3.1/../../../../../H-x86_64-mingw32/nios2-elf/lib\libc.a(libc_a-stdio.o) (_lseek_r)
c:/intelfpga_lite/23.1std/nios2eds/bin/gnu/h-x86_64-mingw32/bin/../lib/gcc/nios2-elf/12.3.1/../../../../../H-x86_64-mingw32/nios2-elf/lib\libc.a(libc_a-openr.o)
                              c:/intelfpga_lite/23.1std/nios2eds/bin/gnu/h-x86_64-mingw32/bin/../lib/gcc/nios2-elf/12.3.1/../../../../../H-x86_64-mingw32/nios2-elf/lib\libc.a(libc_a-fopen.o) (_open_r)
c:/intelfpga_lite/23.1std/nios2eds/bin/gnu/h-x86_64-mingw32/bin/../lib/gcc/nios2-elf/12.3.1/../../../../../H-x86_64-mingw32/nios2-elf/lib\libc.a(libc_a-readr.o)
                              c:/intelfpga_lite/23.1std/nios2eds/bin/gnu/h-x86_64-mingw32/bin/../lib/gcc/nios2-elf/12.3.1/../../../../../H-x86_64-mingw32/nios2-elf/lib\libc.a(libc_a-stdio.o) (_read_r)
c:/intelfpga_lite/23.1std/nios2eds/bin/gnu/h-x86_64-mingw32/bin/../lib/gcc/nios2-elf/12.3.1/../../../../../H-x86_64-mingw32/nios2-elf/lib\libc.a(libc_a-writer.o)
                              c:/intelfpga_lite/23.1std/nios2eds/bin/gnu/h-x86_64-mingw32/bin/../lib/gcc/nios2-elf/12.3.1/../../../../../H-x86_64-mingw32/nios2-elf/lib\libc.a(libc_a-stdio.o) (_write_r)
c:/intelfpga_lite/23.1std/nios2eds/bin/gnu/h-x86_64-mingw32/bin/../lib/gcc/nios2-elf/12.3.1/../../../../../H-x86_64-mingw32/nios2-elf/lib\libc.a(libc_a-errno.o)
                              c:/intelfpga_lite/23.1std/nios2eds/bin/gnu/h-x86_64-mingw32/bin/../lib/gcc/nios2-elf/12.3.1/../../../../../H-x86_64-mingw32/nios2-elf/lib\libm.a(libm_a-w_exp.o) (__errno)
c:/intelfpga_lite/23.1std/nios2eds/bin/gnu/h-x86_64-mingw32/bin/../lib/gcc/nios2-elf/12.3.1/../../../../../H-x86_64-mingw32/nios2-elf/lib\libc.a(libc_a-__call_atexit.o)
                              c:/intelfpga_lite/23.1std/nios2eds/bin/gnu/h-x86_64-mingw32/bin/../lib/gcc/nios2-elf/12.3.1/../../../../../H-x86_64-mingw32/nios2-elf/lib\libc.a(libc_a-exit.o) (__call_exitprocs)
c:/intelfpga_lite/23.1std/nios2eds/bin/gnu/h-x86_64-mingw32/bin/../lib/gcc/nios2-elf/12.3.1/../../../../../H-x86_64-mingw32/nios2-elf/lib\libc.a(libc_a-freer.o)
                              c:/intelfpga_lite/23.1std/nios2eds/bin/gnu/h-x86_64-mingw32/bin/../lib/gcc/nios2-elf/12.3.1/../../../../../H-x86_64-mingw32/nios2-elf/lib\libc.a(libc_a-fclose.o) (_free_r)
c:/intelfpga_lite/23.1std/nios2eds/bin/gnu/h-x86_64-mingw32/bin/../lib/gcc/nios2-elf/12.3.1/../../../../../H-x86_64-mingw32/nios2-elf/lib\libc.a(libc_a-mallocr.o)
                              c:/intelfpga_lite/23.1std/nios2eds/bin/gnu/h-x86_64-mingw32/bin/../lib/gcc/nios2-elf/12.3.1/../../../../../H-x86_64-mingw32/nios2-elf/lib\libc.a(libc_a-findfp.o) (_malloc_r)
c:/intelfpga_lite/23.1std/nios2eds/bin/gnu/h-x86_64-mingw32/bin/../lib/gcc/nios2-elf/12.3.1/../../../../../H-x86_64-mingw32/nios2-elf/lib\libc.a(libc_a-vfprintf.o)
                              c:/intelfpga_lite/23.1std/nios2eds/bin/gnu/h-x86_64-mingw32/bin/../lib/gcc/nios2-elf/12.3.1/../../../../../H-x86_64-mingw32/nios2-elf/lib\libc.a(libc_a-printf.o) (___vfprintf_internal_r)
c:/intelfpga_lite/23.1std/nios2eds/bin/gnu/h-x86_64-mingw32/bin/../lib/gcc/nios2-elf/12.3.1/../../../../../H-x86_64-mingw32/nios2-elf/lib\libc.a(libc_a-vfiprintf.o)
                              c:/intelfpga_lite/23.1std/nios2eds/bin/gnu/h-x86_64-mingw32/bin/../lib/gcc/nios2-elf/12.3.1/../../../../../H-x86_64-mingw32/nios2-elf/lib\libc.a(libc_a-vfprintf.o) (__sprint_r)
c:/intelfpga_lite/23.1std/nios2eds/bin/gnu/h-x86_64-mingw32/bin/../lib/gcc/nios2-elf/12.3.1/../../../../../H-x86_64-mingw32/nios2-elf/lib\libc.a(libc_a-flags.o)
                              c:/intelfpga_lite/23.1std/nios2eds/bin/gnu/h-x86_64-mingw32/bin/../lib/gcc/nios2-elf/12.3.1/../../../../../H-x86_64-mingw32/nios2-elf/lib\libc.a(libc_a-fopen.o) (__sflags)
c:/intelfpga_lite/23.1std/nios2eds/bin/gnu/h-x86_64-mingw32/bin/../lib/gcc/nios2-elf/12.3.1/../../../../../H-x86_64-mingw32/nios2-elf/lib\libc.a(libc_a-fvwrite.o)
                              c:/intelfpga_lite/23.1std/nios2eds/bin/gnu/h-x86_64-mingw32/bin/../lib/gcc/nios2-elf/12.3.1/../../../../../H-x86_64-mingw32/nios2-elf/lib\libc.a(libc_a-puts.o) (__sfvwrite_r)
c:/intelfpga_lite/23.1std/nios2eds/bin/gnu/h-x86_64-mingw32/bin/../lib/gcc/nios2-elf/12.3.1/../../../../../H-x86_64-mingw32/nios2-elf/lib\libc.a(libc_a-makebuf.o)
                              c:/intelfpga_lite/23.1std/nios2eds/bin/gnu/h-x86_64-mingw32/bin/../lib/gcc/nios2-elf/12.3.1/../../../../../H-x86_64-mingw32/nios2-elf/lib\libc.a(libc_a-refill.o) (__smakebuf_r)
c:/intelfpga_lite/23.1std/nios2eds/bin/gnu/h-x86_64-mingw32/bin/../lib/gcc/nios2-elf/12.3.1/../../../../../H-x86_64-mingw32/nios2-elf/lib\libc.a(libc_a-putc.o)
                              c:/intelfpga_lite/23.1std/nios2eds/bin/gnu/h-x86_64-mingw32/bin/../lib/gcc/nios2-elf/12.3.1/../../../../../H-x86_64-mingw32/nios2-elf/lib\libc.a(libc_a-putchar.o) (_putc_r)
c:/intelfpga_lite/23.1std/nios2eds/bin/gnu/h-x86_64-mingw32/bin/../lib/gcc/nios2-elf/12.3.1/../../../../../H-x86_64-mingw32/nios2-elf/lib\libc.a(libc_a-wbuf.o)
                              c:/intelfpga_lite/23.1std/nios2eds/bin/gnu/h-x86_64-mingw32/bin/../lib/gcc/nios2-elf/12.3.1/../../../../../H-x86_64-mingw32/nios2-elf/lib\libc.a(libc_a-putc.o) (__swbuf_r)
c:/intelfpga_lite/23.1std/nios2eds/bin/gnu/h-x86_64-mingw32/bin/../lib/gcc/nios2-elf/12.3.1/../../../../../H-x86_64-mingw32/nios2-elf/lib\libc.a(libc_a-wsetup.o)
                              c:/intelfpga_lite/23.1std/nios2eds/bin/gnu/h-x86_64-mingw32/bin/../lib/gcc/nios2-elf/12.3.1/../../../../../H-x86_64-mingw32/nios2-elf/lib\libc.a(libc_a-vfprintf.o) (__swsetup_r)
c:/intelfpga_lite/23.1std/nios2eds/bin/gnu/h-x86_64-mingw32/bin/../lib/gcc/nios2-elf/12.3.1/../../../../../H-x86_64-mingw32/nios2-elf/lib\libc.a(libc_a-fputwc.o)
                              c:/intelfpga_lite/23.1std/nios2eds/bin/gnu/h-x86_64-mingw32/bin/../lib/gcc/nios2-elf/12.3.1/../../../../../H-x86_64-mingw32/nios2-elf/lib\libc.a(libc_a-vfiprintf.o) (_fputwc_r)
c:/intelfpga_lite/23.1std/nios2eds/bin/gnu/h-x86_64-mingw32/bin/../lib/gcc/nios2-elf/12.3.1/../../../../../H-x86_64-mingw32/nios2-elf/lib\libc.a(libc_a-memchr.o)
                              c:/intelfpga_lite/23.1std/nios2eds/bin/gnu/h-x86_64-mingw32/bin/../lib/gcc/nios2-elf/12.3.1/../../../../../H-x86_64-mingw32/nios2-elf/lib\libc.a(libc_a-vfprintf.o) (memchr)
c:/intelfpga_lite/23.1std/nios2eds/bin/gnu/h-x86_64-mingw32/bin/../lib/gcc/nios2-elf/12.3.1/../../../../../H-x86_64-mingw32/nios2-elf/lib\libc.a(libc_a-memmove.o)
                              c:/intelfpga_lite/23.1std/nios2eds/bin/gnu/h-x86_64-mingw32/bin/../lib/gcc/nios2-elf/12.3.1/../../../../../H-x86_64-mingw32/nios2-elf/lib\libc.a(libc_a-fvwrite.o) (memmove)
c:/intelfpga_lite/23.1std/nios2eds/bin/gnu/h-x86_64-mingw32/bin/../lib/gcc/nios2-elf/12.3.1/../../../../../H-x86_64-mingw32/nios2-elf/lib\libc.a(libc_a-locale.o)
                              c:/intelfpga_lite/23.1std/nios2eds/bin/gnu/h-x86_64-mingw32/bin/../lib/gcc/nios2-elf/12.3.1/../../../../../H-x86_64-mingw32/nios2-elf/lib\libc.a(libc_a-fputwc.o) (__locale_mb_cur_max)
c:/intelfpga_lite/23.1std/nios2eds/bin/gnu/h-x86_64-mingw32/bin/../lib/gcc/nios2-elf/12.3.1/../../../../../H-x86_64-mingw32/nios2-elf/lib\libc.a(libc_a-localeconv.o)
                              c:/intelfpga_lite/23.1std/nios2eds/bin/gnu/h-x86_64-mingw32/bin/../lib/gcc/nios2-elf/12.3.1/../../../../../H-x86_64-mingw32/nios2-elf/lib\libc.a(libc_a-vfprintf.o) (_localeconv_r)
c:/intelfpga_lite/23.1std/nios2eds/bin/gnu/h-x86_64-mingw32/bin/../lib/gcc/nios2-elf/12.3.1/../../../../../H-x86_64-mingw32/nios2-elf/lib\libc.a(libc_a-isattyr.o)
                              c:/intelfpga_lite/23.1std/nios2eds/bin/gnu/h-x86_64-mingw32/bin/../lib/gcc/nios2-elf/12.3.1/../../../../../H-x86_64-mingw32/nios2-elf/lib\libc.a(libc_a-makebuf.o) (_isatty_r)
c:/intelfpga_lite/23.1std/nios2eds/bin/gnu/h-x86_64-mingw32/bin/../lib/gcc/nios2-elf/12.3.1/../../../../../H-x86_64-mingw32/nios2-elf/lib\libc.a(libc_a-sbrkr.o)
                              c:/intelfpga_lite/23.1std/nios2eds/bin/gnu/h-x86_64-mingw32/bin/../lib/gcc/nios2-elf/12.3.1/../../../../../H-x86_64-mingw32/nios2-elf/lib\libc.a(libc_a-freer.o) (_sbrk_r)
c:/intelfpga_lite/23.1std/nios2eds/bin/gnu/h-x86_64-mingw32/bin/../lib/gcc/nios2-elf/12.3.1/../../../../../H-x86_64-mingw32/nios2-elf/lib\libc.a(libc_a-dtoa.o)
                              c:/intelfpga_lite/23.1std/nios2eds/bin/gnu/h-x86_64-mingw32/bin/../lib/gcc/nios2-elf/12.3.1/../../../../../H-x86_64-mingw32/nios2-elf/lib\libc.a(libc_a-vfprintf.o) (_dtoa_r)
c:/intelfpga_lite/23.1std/nios2eds/bin/gnu/h-x86_64-mingw32/bin/../lib/gcc/nios2-elf/12.3.1/../../../../../H-x86_64-mingw32/nios2-elf/lib\libc.a(libc_a-mbtowc_r.o)
                              c:/intelfpga_lite/23.1std/nios2eds/bin/gnu/h-x86_64-mingw32/bin/../lib/gcc/nios2-elf/12.3.1/../../../../../H-x86_64-mingw32/nios2-elf/lib\libc.a(libc_a-locale.o) (__ascii_mbtowc)
c:/intelfpga_lite/23.1std/nios2eds/bin/gnu/h-x86_64-mingw32/bin/../lib/gcc/nios2-elf/12.3.1/../../../../../H-x86_64-mingw32/nios2-elf/lib\libc.a(libc_a-mprec.o)
                              c:/intelfpga_lite/23.1std/nios2eds/bin/gnu/h-x86_64-mingw32/bin/../lib/gcc/nios2-elf/12.3.1/../../../../../H-x86_64-mingw32/nios2-elf/lib\libc.a(libc_a-dtoa.o) (_Balloc)
c:/intelfpga_lite/23.1std/nios2eds/bin/gnu/h-x86_64-mingw32/bin/../lib/gcc/nios2-elf/12.3.1/../../../../../H-x86_64-mingw32/nios2-elf/lib\libc.a(libc_a-reallocr.o)
                              c:/intelfpga_lite/23.1std/nios2eds/bin/gnu/h-x86_64-mingw32/bin/../lib/gcc/nios2-elf/12.3.1/../../../../../H-x86_64-mingw32/nios2-elf/lib\libc.a(libc_a-fvwrite.o) (_realloc_r)
c:/intelfpga_lite/23.1std/nios2eds/bin/gnu/h-x86_64-mingw32/bin/../lib/gcc/nios2-elf/12.3.1/../../../../../H-x86_64-mingw32/nios2-elf/lib\libc.a(libc_a-wctomb_r.o)
                              c:/intelfpga_lite/23.1std/nios2eds/bin/gnu/h-x86_64-mingw32/bin/../lib/gcc/nios2-elf/12.3.1/../../../../../H-x86_64-mingw32/nios2-elf/lib\libc.a(libc_a-locale.o) (__ascii_wctomb)
c:/intelfpga_lite/23.1std/nios2eds/bin/gnu/h-x86_64-mingw32/bin/../lib/gcc/nios2-elf/12.3.1/../../../../../H-x86_64-mingw32/nios2-elf/lib\libc.a(libc_a-wcrtomb.o)
                              c:/intelfpga_lite/23.1std/nios2eds/bin/gnu/h-x86_64-mingw32/bin/../lib/gcc/nios2-elf/12.3.1/../../../../../H-x86_64-mingw32/nios2-elf/lib\libc.a(libc_a-fputwc.o) (_wcrtomb_r)
c:/intelfpga_lite/23.1std/nios2eds/bin/gnu/h-x86_64-mingw32/bin/../lib/gcc/nios2-elf/12.3.1/../../../../../H-x86_64-mingw32/nios2-elf/lib\libc.a(libc_a-ctype_.o)
                              c:/intelfpga_lite/23.1std/nios2eds/bin/gnu/h-x86_64-mingw32/bin/../lib/gcc/nios2-elf/12.3.1/../../../../../H-x86_64-mingw32/nios2-elf/lib\libc.a(libc_a-locale.o) (_ctype_b)
c:/intelfpga_lite/23.1std/nios2eds/bin/gnu/h-x86_64-mingw32/bin/../lib/gcc/nios2-elf/12.3.1/../../../../../H-x86_64-mingw32/nios2-elf/lib\libc.a(libc_a-strcmp.o)
                              c:/intelfpga_lite/23.1std/nios2eds/bin/gnu/h-x86_64-mingw32/bin/../lib/gcc/nios2-elf/12.3.1/../../../../../H-x86_64-mingw32/nios2-elf/lib\libc.a(libc_a-locale.o) (strcmp)
c:/intelfpga_lite/23.1std/nios2eds/bin/gnu/h-x86_64-mingw32/bin/../lib/gcc/nios2-elf/12.3.1/../../../../../H-x86_64-mingw32/nios2-elf/lib\libc.a(libc_a-assert.o)
                              c:/intelfpga_lite/23.1std/nios2eds/bin/gnu/h-x86_64-mingw32/bin/../lib/gcc/nios2-elf/12.3.1/../../../../../H-x86_64-mingw32/nios2-elf/lib\libc.a(libc_a-dtoa.o) (__assert_func)
c:/intelfpga_lite/23.1std/nios2eds/bin/gnu/h-x86_64-mingw32/bin/../lib/gcc/nios2-elf/12.3.1/../../../../../H-x86_64-mingw32/nios2-elf/lib\libc.a(libc_a-callocr.o)
                              c:/intelfpga_lite/23.1std/nios2eds/bin/gnu/h-x86_64-mingw32/bin/../lib/gcc/nios2-elf/12.3.1/../../../../../H-x86_64-mingw32/nios2-elf/lib\libc.a(libc_a-mprec.o) (_calloc_r)
c:/intelfpga_lite/23.1std/nios2eds/bin/gnu/h-x86_64-mingw32/bin/../lib/gcc/nios2-elf/12.3.1/../../../../../H-x86_64-mingw32/nios2-elf/lib\libc.a(libc_a-fiprintf.o)
                              c:/intelfpga_lite/23.1std/nios2eds/bin/gnu/h-x86_64-mingw32/bin/../lib/gcc/nios2-elf/12.3.1/../../../../../H-x86_64-mingw32/nios2-elf/lib\libc.a(libc_a-assert.o) (fiprintf)
c:/intelfpga_lite/23.1std/nios2eds/bin/gnu/h-x86_64-mingw32/bin/../lib/gcc/nios2-elf/12.3.1/../../../../../H-x86_64-mingw32/nios2-elf/lib\libc.a(libc_a-vfiprintfr_1.o)
                              c:/intelfpga_lite/23.1std/nios2eds/bin/gnu/h-x86_64-mingw32/bin/../lib/gcc/nios2-elf/12.3.1/../../../../../H-x86_64-mingw32/nios2-elf/lib\libc.a(libc_a-fiprintf.o) (_vfiprintf_r)
c:/intelfpga_lite/23.1std/nios2eds/bin/gnu/h-x86_64-mingw32/bin/../lib/gcc/nios2-elf/12.3.1/../../../../../H-x86_64-mingw32/nios2-elf/lib\libc.a(libc_a-abort.o)
                              c:/intelfpga_lite/23.1std/nios2eds/bin/gnu/h-x86_64-mingw32/bin/../lib/gcc/nios2-elf/12.3.1/../../../../../H-x86_64-mingw32/nios2-elf/lib\libc.a(libc_a-assert.o) (abort)
c:/intelfpga_lite/23.1std/nios2eds/bin/gnu/h-x86_64-mingw32/bin/../lib/gcc/nios2-elf/12.3.1/../../../../../H-x86_64-mingw32/nios2-elf/lib\libc.a(libc_a-signal.o)
                              c:/intelfpga_lite/23.1std/nios2eds/bin/gnu/h-x86_64-mingw32/bin/../lib/gcc/nios2-elf/12.3.1/../../../../../H-x86_64-mingw32/nios2-elf/lib\libc.a(libc_a-abort.o) (raise)
c:/intelfpga_lite/23.1std/nios2eds/bin/gnu/h-x86_64-mingw32/bin/../lib/gcc/nios2-elf/12.3.1/../../../../../H-x86_64-mingw32/nios2-elf/lib\libc.a(libc_a-signalr.o)
                              c:/intelfpga_lite/23.1std/nios2eds/bin/gnu/h-x86_64-mingw32/bin/../lib/gcc/nios2-elf/12.3.1/../../../../../H-x86_64-mingw32/nios2-elf/lib\libc.a(libc_a-signal.o) (_kill_r)
c:/intelfpga_lite/23.1std/nios2eds/bin/gnu/h-x86_64-mingw32/bin/../lib/gcc/nios2-elf/12.3.1\libgcc.a(_udivdi3.o)
                              c:/intelfpga_lite/23.1std/nios2eds/bin/gnu/h-x86_64-mingw32/bin/../lib/gcc/nios2-elf/12.3.1/../../../../../H-x86_64-mingw32/nios2-elf/lib\libc.a(libc_a-vfprintf.o) (__udivdi3)
c:/intelfpga_lite/23.1std/nios2eds/bin/gnu/h-x86_64-mingw32/bin/../lib/gcc/nios2-elf/12.3.1\libgcc.a(_umoddi3.o)
                              c:/intelfpga_lite/23.1std/nios2eds/bin/gnu/h-x86_64-mingw32/bin/../lib/gcc/nios2-elf/12.3.1/../../../../../H-x86_64-mingw32/nios2-elf/lib\libc.a(libc_a-vfprintf.o) (__umoddi3)
c:/intelfpga_lite/23.1std/nios2eds/bin/gnu/h-x86_64-mingw32/bin/../lib/gcc/nios2-elf/12.3.1\libgcc.a(floatunsidf.o)
                              c:/intelfpga_lite/23.1std/nios2eds/bin/gnu/h-x86_64-mingw32/bin/../lib/gcc/nios2-elf/12.3.1/../../../../../H-x86_64-mingw32/nios2-elf/lib\libc.a(libc_a-dtoa.o) (__floatunsidf)
c:/Users/pedro/OneDrive/Documentos/CNN-paralel/Software/c0_bsp/\libhal_bsp.a(alt_close.o)
                              c:/intelfpga_lite/23.1std/nios2eds/bin/gnu/h-x86_64-mingw32/bin/../lib/gcc/nios2-elf/12.3.1/../../../../../H-x86_64-mingw32/nios2-elf/lib\libc.a(libc_a-closer.o) (close)
c:/Users/pedro/OneDrive/Documentos/CNN-paralel/Software/c0_bsp/\libhal_bsp.a(alt_dev.o)
                              c:/Users/pedro/OneDrive/Documentos/CNN-paralel/Software/c0_bsp/\libhal_bsp.a(alt_close.o) (alt_fd_list)
c:/Users/pedro/OneDrive/Documentos/CNN-paralel/Software/c0_bsp/\libhal_bsp.a(alt_errno.o)
                              c:/Users/pedro/OneDrive/Documentos/CNN-paralel/Software/c0_bsp/\libhal_bsp.a(alt_close.o) (alt_errno)
c:/Users/pedro/OneDrive/Documentos/CNN-paralel/Software/c0_bsp/\libhal_bsp.a(alt_fstat.o)
                              c:/intelfpga_lite/23.1std/nios2eds/bin/gnu/h-x86_64-mingw32/bin/../lib/gcc/nios2-elf/12.3.1/../../../../../H-x86_64-mingw32/nios2-elf/lib\libc.a(libc_a-fstatr.o) (fstat)
c:/Users/pedro/OneDrive/Documentos/CNN-paralel/Software/c0_bsp/\libhal_bsp.a(alt_getpid.o)
                              c:/intelfpga_lite/23.1std/nios2eds/bin/gnu/h-x86_64-mingw32/bin/../lib/gcc/nios2-elf/12.3.1/../../../../../H-x86_64-mingw32/nios2-elf/lib\libc.a(libc_a-signalr.o) (getpid)
c:/Users/pedro/OneDrive/Documentos/CNN-paralel/Software/c0_bsp/\libhal_bsp.a(alt_isatty.o)
                              c:/intelfpga_lite/23.1std/nios2eds/bin/gnu/h-x86_64-mingw32/bin/../lib/gcc/nios2-elf/12.3.1/../../../../../H-x86_64-mingw32/nios2-elf/lib\libc.a(libc_a-isattyr.o) (isatty)
c:/Users/pedro/OneDrive/Documentos/CNN-paralel/Software/c0_bsp/\libhal_bsp.a(alt_kill.o)
                              c:/intelfpga_lite/23.1std/nios2eds/bin/gnu/h-x86_64-mingw32/bin/../lib/gcc/nios2-elf/12.3.1/../../../../../H-x86_64-mingw32/nios2-elf/lib\libc.a(libc_a-signalr.o) (kill)
c:/Users/pedro/OneDrive/Documentos/CNN-paralel/Software/c0_bsp/\libhal_bsp.a(alt_load.o)
                              c:/Users/pedro/OneDrive/Documentos/CNN-paralel/Software/c0_bsp//obj/HAL/src/crt0.o (alt_load)
c:/Users/pedro/OneDrive/Documentos/CNN-paralel/Software/c0_bsp/\libhal_bsp.a(alt_lseek.o)
                              c:/intelfpga_lite/23.1std/nios2eds/bin/gnu/h-x86_64-mingw32/bin/../lib/gcc/nios2-elf/12.3.1/../../../../../H-x86_64-mingw32/nios2-elf/lib\libc.a(libc_a-lseekr.o) (lseek)
c:/Users/pedro/OneDrive/Documentos/CNN-paralel/Software/c0_bsp/\libhal_bsp.a(alt_main.o)
                              c:/Users/pedro/OneDrive/Documentos/CNN-paralel/Software/c0_bsp//obj/HAL/src/crt0.o (alt_main)
c:/Users/pedro/OneDrive/Documentos/CNN-paralel/Software/c0_bsp/\libhal_bsp.a(alt_malloc_lock.o)
                              c:/intelfpga_lite/23.1std/nios2eds/bin/gnu/h-x86_64-mingw32/bin/../lib/gcc/nios2-elf/12.3.1/../../../../../H-x86_64-mingw32/nios2-elf/lib\libc.a(libc_a-freer.o) (__malloc_lock)
c:/Users/pedro/OneDrive/Documentos/CNN-paralel/Software/c0_bsp/\libhal_bsp.a(alt_open.o)
                              c:/intelfpga_lite/23.1std/nios2eds/bin/gnu/h-x86_64-mingw32/bin/../lib/gcc/nios2-elf/12.3.1/../../../../../H-x86_64-mingw32/nios2-elf/lib\libc.a(libc_a-openr.o) (open)
c:/Users/pedro/OneDrive/Documentos/CNN-paralel/Software/c0_bsp/\libhal_bsp.a(alt_read.o)
                              c:/intelfpga_lite/23.1std/nios2eds/bin/gnu/h-x86_64-mingw32/bin/../lib/gcc/nios2-elf/12.3.1/../../../../../H-x86_64-mingw32/nios2-elf/lib\libc.a(libc_a-readr.o) (read)
c:/Users/pedro/OneDrive/Documentos/CNN-paralel/Software/c0_bsp/\libhal_bsp.a(alt_release_fd.o)
                              c:/Users/pedro/OneDrive/Documentos/CNN-paralel/Software/c0_bsp/\libhal_bsp.a(alt_close.o) (alt_release_fd)
c:/Users/pedro/OneDrive/Documentos/CNN-paralel/Software/c0_bsp/\libhal_bsp.a(alt_sbrk.o)
                              c:/intelfpga_lite/23.1std/nios2eds/bin/gnu/h-x86_64-mingw32/bin/../lib/gcc/nios2-elf/12.3.1/../../../../../H-x86_64-mingw32/nios2-elf/lib\libc.a(libc_a-sbrkr.o) (sbrk)
c:/Users/pedro/OneDrive/Documentos/CNN-paralel/Software/c0_bsp/\libhal_bsp.a(alt_write.o)
                              c:/intelfpga_lite/23.1std/nios2eds/bin/gnu/h-x86_64-mingw32/bin/../lib/gcc/nios2-elf/12.3.1/../../../../../H-x86_64-mingw32/nios2-elf/lib\libc.a(libc_a-writer.o) (write)
c:/Users/pedro/OneDrive/Documentos/CNN-paralel/Software/c0_bsp/\libhal_bsp.a(alt_sys_init.o)
                              c:/Users/pedro/OneDrive/Documentos/CNN-paralel/Software/c0_bsp/\libhal_bsp.a(alt_main.o) (alt_irq_init)
c:/Users/pedro/OneDrive/Documentos/CNN-paralel/Software/c0_bsp/\libhal_bsp.a(altera_avalon_jtag_uart_fd.o)
                              c:/Users/pedro/OneDrive/Documentos/CNN-paralel/Software/c0_bsp/\libhal_bsp.a(alt_sys_init.o) (altera_avalon_jtag_uart_read_fd)
c:/Users/pedro/OneDrive/Documentos/CNN-paralel/Software/c0_bsp/\libhal_bsp.a(altera_avalon_jtag_uart_read.o)
                              c:/Users/pedro/OneDrive/Documentos/CNN-paralel/Software/c0_bsp/\libhal_bsp.a(altera_avalon_jtag_uart_fd.o) (altera_avalon_jtag_uart_read)
c:/Users/pedro/OneDrive/Documentos/CNN-paralel/Software/c0_bsp/\libhal_bsp.a(altera_avalon_jtag_uart_write.o)
                              c:/Users/pedro/OneDrive/Documentos/CNN-paralel/Software/c0_bsp/\libhal_bsp.a(altera_avalon_jtag_uart_fd.o) (altera_avalon_jtag_uart_write)
c:/Users/pedro/OneDrive/Documentos/CNN-paralel/Software/c0_bsp/\libhal_bsp.a(altera_hostfs.o)
                              c:/Users/pedro/OneDrive/Documentos/CNN-paralel/Software/c0_bsp/\libhal_bsp.a(alt_sys_init.o) (alt_hostfs_open)
c:/Users/pedro/OneDrive/Documentos/CNN-paralel/Software/c0_bsp/\libhal_bsp.a(alt_dcache_flush_all.o)
                              c:/Users/pedro/OneDrive/Documentos/CNN-paralel/Software/c0_bsp/\libhal_bsp.a(alt_load.o) (alt_dcache_flush_all)
c:/Users/pedro/OneDrive/Documentos/CNN-paralel/Software/c0_bsp/\libhal_bsp.a(alt_dev_llist_insert.o)
                              c:/Users/pedro/OneDrive/Documentos/CNN-paralel/Software/c0_bsp/\libhal_bsp.a(alt_sys_init.o) (alt_dev_llist_insert)
c:/Users/pedro/OneDrive/Documentos/CNN-paralel/Software/c0_bsp/\libhal_bsp.a(alt_find_dev.o)
                              c:/Users/pedro/OneDrive/Documentos/CNN-paralel/Software/c0_bsp/\libhal_bsp.a(alt_open.o) (alt_find_dev)
c:/Users/pedro/OneDrive/Documentos/CNN-paralel/Software/c0_bsp/\libhal_bsp.a(alt_find_file.o)
                              c:/Users/pedro/OneDrive/Documentos/CNN-paralel/Software/c0_bsp/\libhal_bsp.a(alt_open.o) (alt_find_file)
c:/Users/pedro/OneDrive/Documentos/CNN-paralel/Software/c0_bsp/\libhal_bsp.a(alt_fs_reg.o)
                              c:/Users/pedro/OneDrive/Documentos/CNN-paralel/Software/c0_bsp/\libhal_bsp.a(alt_sys_init.o) (alt_fs_reg)
c:/Users/pedro/OneDrive/Documentos/CNN-paralel/Software/c0_bsp/\libhal_bsp.a(alt_get_fd.o)
                              c:/Users/pedro/OneDrive/Documentos/CNN-paralel/Software/c0_bsp/\libhal_bsp.a(alt_open.o) (alt_get_fd)
c:/Users/pedro/OneDrive/Documentos/CNN-paralel/Software/c0_bsp/\libhal_bsp.a(alt_icache_flush_all.o)
                              c:/Users/pedro/OneDrive/Documentos/CNN-paralel/Software/c0_bsp/\libhal_bsp.a(alt_load.o) (alt_icache_flush_all)
c:/Users/pedro/OneDrive/Documentos/CNN-paralel/Software/c0_bsp/\libhal_bsp.a(alt_io_redirect.o)
                              c:/Users/pedro/OneDrive/Documentos/CNN-paralel/Software/c0_bsp/\libhal_bsp.a(alt_main.o) (alt_io_redirect)
c:/Users/pedro/OneDrive/Documentos/CNN-paralel/Software/c0_bsp/\libhal_bsp.a(altera_nios2_gen2_irq.o)
                              c:/Users/pedro/OneDrive/Documentos/CNN-paralel/Software/c0_bsp/\libhal_bsp.a(alt_sys_init.o) (altera_nios2_gen2_irq_init)
c:/intelfpga_lite/23.1std/nios2eds/bin/gnu/h-x86_64-mingw32/bin/../lib/gcc/nios2-elf/12.3.1/../../../../../H-x86_64-mingw32/nios2-elf/lib\libc.a(libc_a-memcmp.o)
                              c:/Users/pedro/OneDrive/Documentos/CNN-paralel/Software/c0_bsp/\libhal_bsp.a(alt_find_dev.o) (memcmp)

Memory Configuration

Name             Origin             Length             Attributes
reset            0x00000000         0x00000020
c0_rom           0x00000020         0x00015f70
c0_ram           0x00100000         0x00088b80
*default*        0x00000000         0xffffffff

Linker script and memory map

LOAD c:/Users/pedro/OneDrive/Documentos/CNN-paralel/Software/c0_bsp//obj/HAL/src/crt0.o
LOAD obj/default/image.o
LOAD obj/default/main.o
LOAD c:/intelfpga_lite/23.1std/nios2eds/bin/gnu/h-x86_64-mingw32/bin/../lib/gcc/nios2-elf/12.3.1/../../../../../H-x86_64-mingw32/nios2-elf/lib\libstdc++.a
LOAD c:/intelfpga_lite/23.1std/nios2eds/bin/gnu/h-x86_64-mingw32/bin/../lib/gcc/nios2-elf/12.3.1/../../../../../H-x86_64-mingw32/nios2-elf/lib\libm.a
LOAD c:/intelfpga_lite/23.1std/nios2eds/bin/gnu/h-x86_64-mingw32/bin/../lib/gcc/nios2-elf/12.3.1\libgcc.a
START GROUP
LOAD c:/intelfpga_lite/23.1std/nios2eds/bin/gnu/h-x86_64-mingw32/bin/../lib/gcc/nios2-elf/12.3.1/../../../../../H-x86_64-mingw32/nios2-elf/lib\libc.a
LOAD c:/intelfpga_lite/23.1std/nios2eds/bin/gnu/h-x86_64-mingw32/bin/../lib/gcc/nios2-elf/12.3.1\libgcc.a
LOAD c:/Users/pedro/OneDrive/Documentos/CNN-paralel/Software/c0_bsp/\libhal_bsp.a
LOAD c:/intelfpga_lite/23.1std/nios2eds/bin/gnu/h-x86_64-mingw32/bin/../lib/gcc/nios2-elf/12.3.1/../../../../../H-x86_64-mingw32/nios2-elf/lib\libm.a
END GROUP
LOAD c:/intelfpga_lite/23.1std/nios2eds/bin/gnu/h-x86_64-mingw32/bin/../lib/gcc/nios2-elf/12.3.1\libgcc.a
                0x00000000                        __alt_mem_c0_rom = 0x0
                0x00100000                        __alt_mem_c0_ram = 0x100000

.entry          0x00000000       0x20
 *(.entry)
 .entry         0x00000000       0x20 c:/Users/pedro/OneDrive/Documentos/CNN-paralel/Software/c0_bsp//obj/HAL/src/crt0.o
                0x00000000                __reset
                0x0000000c                _exit

.exceptions     0x00000020        0x0
                0x00000020                        PROVIDE (__ram_exceptions_start = ABSOLUTE (.))
                0x00000020                        . = ALIGN (0x20)
 *(.irq)
 *(.exceptions.entry.label)
 *(.exceptions.entry.user)
 *(.exceptions.entry.ecc_fatal)
 *(.exceptions.entry)
 *(.exceptions.irqtest.user)
 *(.exceptions.irqtest)
 *(.exceptions.irqhandler.user)
 *(.exceptions.irqhandler)
 *(.exceptions.irqreturn.user)
 *(.exceptions.irqreturn)
 *(.exceptions.notirq.label)
 *(.exceptions.notirq.user)
 *(.exceptions.notirq)
 *(.exceptions.soft.user)
 *(.exceptions.soft)
 *(.exceptions.unknown.user)
 *(.exceptions.unknown)
 *(.exceptions.exit.label)
 *(.exceptions.exit.user)
 *(.exceptions.exit)
 *(.exceptions)
                0x00000020                        PROVIDE (__ram_exceptions_end = ABSOLUTE (.))
                0x00000020                        PROVIDE (__flash_exceptions_start = LOADADDR (.exceptions))

.text           0x00000020    0x11b7c
                [!provide]                        PROVIDE (stext = ABSOLUTE (.))
 *(.interp)
 *(.hash)
 *(.dynsym)
 *(.dynstr)
 *(.gnu.version)
 *(.gnu.version_d)
 *(.gnu.version_r)
 *(.rel.init)
 *(.rela.init)
 *(.rel.text .rel.text.* .rel.gnu.linkonce.t.*)
 *(.rela.text .rela.text.* .rela.gnu.linkonce.t.*)
 *(.rel.fini)
 *(.rela.fini)
 *(.rel.rodata .rel.rodata.* .rel.gnu.linkonce.r.*)
 *(.rela.rodata .rela.rodata.* .rela.gnu.linkonce.r.*)
 *(.rel.data .rel.data.* .rel.gnu.linkonce.d.*)
 *(.rela.data .rela.data.* .rela.gnu.linkonce.d.*)
 *(.rel.tdata .rel.tdata.* .rel.gnu.linkonce.td.*)
 *(.rela.tdata .rela.tdata.* .rela.gnu.linkonce.td.*)
 *(.rel.tbss .rel.tbss.* .rel.gnu.linkonce.tb.*)
 *(.rela.tbss .rela.tbss.* .rela.gnu.linkonce.tb.*)
 *(.rel.ctors)
 *(.rela.ctors)
 *(.rel.dtors)
 *(.rela.dtors)
 *(.rel.got)
 *(.rela.got)
 *(.rel.sdata .rel.sdata.* .rel.gnu.linkonce.s.*)
 *(.rela.sdata .rela.sdata.* .rela.gnu.linkonce.s.*)
 *(.rel.sbss .rel.sbss.* .rel.gnu.linkonce.sb.*)
 *(.rela.sbss .rela.sbss.* .rela.gnu.linkonce.sb.*)
 *(.rel.sdata2 .rel.sdata2.* .rel.gnu.linkonce.s2.*)
 *(.rela.sdata2 .rela.sdata2.* .rela.gnu.linkonce.s2.*)
 *(.rel.sbss2 .rel.sbss2.* .rel.gnu.linkonce.sb2.*)
 *(.rela.sbss2 .rela.sbss2.* .rela.gnu.linkonce.sb2.*)
 *(.rel.bss .rel.bss.* .rel.gnu.linkonce.b.*)
 *(.rela.bss .rela.bss.* .rela.gnu.linkonce.b.*)
 *(.rel.plt)
 *(.rela.plt)
 *(.rel.dyn)
 *(.init)
 *(.plt)
 *(.text .stub .text.* .gnu.linkonce.t.*)
 .text          0x00000020       0x3c c:/Users/pedro/OneDrive/Documentos/CNN-paralel/Software/c0_bsp//obj/HAL/src/crt0.o
                0x00000020                _start
 .text          0x0000005c      0x198 obj/default/image.o
                0x0000005c                print_pgm
                0x000000fc                image_scale2float
                0x00000160                print_fp_image
 .text          0x000001f4      0xbb8 obj/default/main.o
                0x000001f4                print_fp
                0x000002e0                print_fp_mat
                0x0000039c                gemm
                0x000004d8                gemmBT
                0x00000614                transpose
                0x00000664                add_bias
                0x0000079c                prepare_matrixA
                0x0000087c                forward_softmax_layer
                0x00000990                forward_maxpool_layer
                0x00000ae8                forward_convolutional_layer
                0x00000b64                forward_connected_layer
                0x00000bdc                predict_mnist
                0x00000bfc                define_memory_regions
                0x00000cb4                upload_images_and_weights
 .text.startup  0x00000dac      0x144 obj/default/main.o
                0x00000dac                main
 .text          0x00000ef0        0x0 c:/intelfpga_lite/23.1std/nios2eds/bin/gnu/h-x86_64-mingw32/bin/../lib/gcc/nios2-elf/12.3.1/../../../../../H-x86_64-mingw32/nios2-elf/lib\libm.a(libm_a-w_exp.o)
 .text.exp      0x00000ef0       0xcc c:/intelfpga_lite/23.1std/nios2eds/bin/gnu/h-x86_64-mingw32/bin/../lib/gcc/nios2-elf/12.3.1/../../../../../H-x86_64-mingw32/nios2-elf/lib\libm.a(libm_a-w_exp.o)
                0x00000ef0                exp
 .text          0x00000fbc        0x0 c:/intelfpga_lite/23.1std/nios2eds/bin/gnu/h-x86_64-mingw32/bin/../lib/gcc/nios2-elf/12.3.1/../../../../../H-x86_64-mingw32/nios2-elf/lib\libm.a(libm_a-s_finite.o)
 .text.finite   0x00000fbc       0x1c c:/intelfpga_lite/23.1std/nios2eds/bin/gnu/h-x86_64-mingw32/bin/../lib/gcc/nios2-elf/12.3.1/../../../../../H-x86_64-mingw32/nios2-elf/lib\libm.a(libm_a-s_finite.o)
                0x00000fbc                finite
 .text          0x00000fd8        0x0 c:/intelfpga_lite/23.1std/nios2eds/bin/gnu/h-x86_64-mingw32/bin/../lib/gcc/nios2-elf/12.3.1/../../../../../H-x86_64-mingw32/nios2-elf/lib\libm.a(libm_a-e_exp.o)
 .text.__ieee754_exp
                0x00000fd8      0x51c c:/intelfpga_lite/23.1std/nios2eds/bin/gnu/h-x86_64-mingw32/bin/../lib/gcc/nios2-elf/12.3.1/../../../../../H-x86_64-mingw32/nios2-elf/lib\libm.a(libm_a-e_exp.o)
                0x00000fd8                __ieee754_exp
 .text          0x000014f4        0x0 c:/intelfpga_lite/23.1std/nios2eds/bin/gnu/h-x86_64-mingw32/bin/../lib/gcc/nios2-elf/12.3.1/../../../../../H-x86_64-mingw32/nios2-elf/lib\libm.a(libm_a-math_err.o)
 .text.with_errno
                0x000014f4       0x48 c:/intelfpga_lite/23.1std/nios2eds/bin/gnu/h-x86_64-mingw32/bin/../lib/gcc/nios2-elf/12.3.1/../../../../../H-x86_64-mingw32/nios2-elf/lib\libm.a(libm_a-math_err.o)
 .text.xflow    0x0000153c       0x50 c:/intelfpga_lite/23.1std/nios2eds/bin/gnu/h-x86_64-mingw32/bin/../lib/gcc/nios2-elf/12.3.1/../../../../../H-x86_64-mingw32/nios2-elf/lib\libm.a(libm_a-math_err.o)
 .text.__math_uflow
                0x0000158c        0xc c:/intelfpga_lite/23.1std/nios2eds/bin/gnu/h-x86_64-mingw32/bin/../lib/gcc/nios2-elf/12.3.1/../../../../../H-x86_64-mingw32/nios2-elf/lib\libm.a(libm_a-math_err.o)
                0x0000158c                __math_uflow
 .text.__math_may_uflow
                0x00001598        0xc c:/intelfpga_lite/23.1std/nios2eds/bin/gnu/h-x86_64-mingw32/bin/../lib/gcc/nios2-elf/12.3.1/../../../../../H-x86_64-mingw32/nios2-elf/lib\libm.a(libm_a-math_err.o)
                0x00001598                __math_may_uflow
 .text.__math_oflow
                0x000015a4        0xc c:/intelfpga_lite/23.1std/nios2eds/bin/gnu/h-x86_64-mingw32/bin/../lib/gcc/nios2-elf/12.3.1/../../../../../H-x86_64-mingw32/nios2-elf/lib\libm.a(libm_a-math_err.o)
                0x000015a4                __math_oflow
 .text.__math_divzero
                0x000015b0       0x4c c:/intelfpga_lite/23.1std/nios2eds/bin/gnu/h-x86_64-mingw32/bin/../lib/gcc/nios2-elf/12.3.1/../../../../../H-x86_64-mingw32/nios2-elf/lib\libm.a(libm_a-math_err.o)
                0x000015b0                __math_divzero
 .text.__math_invalid
                0x000015fc       0xac c:/intelfpga_lite/23.1std/nios2eds/bin/gnu/h-x86_64-mingw32/bin/../lib/gcc/nios2-elf/12.3.1/../../../../../H-x86_64-mingw32/nios2-elf/lib\libm.a(libm_a-math_err.o)
                0x000015fc                __math_invalid
 .text.__math_check_uflow
                0x000016a8       0x64 c:/intelfpga_lite/23.1std/nios2eds/bin/gnu/h-x86_64-mingw32/bin/../lib/gcc/nios2-elf/12.3.1/../../../../../H-x86_64-mingw32/nios2-elf/lib\libm.a(libm_a-math_err.o)
                0x000016a8                __math_check_uflow
 .text.__math_check_oflow
                0x0000170c       0xa0 c:/intelfpga_lite/23.1std/nios2eds/bin/gnu/h-x86_64-mingw32/bin/../lib/gcc/nios2-elf/12.3.1/../../../../../H-x86_64-mingw32/nios2-elf/lib\libm.a(libm_a-math_err.o)
                0x0000170c                __math_check_oflow
 .text          0x000017ac      0x1b4 c:/intelfpga_lite/23.1std/nios2eds/bin/gnu/h-x86_64-mingw32/bin/../lib/gcc/nios2-elf/12.3.1\libgcc.a(lib2-divmod.o)
                0x000017ac                __divsi3
                0x0000182c                __modsi3
                0x000018a0                __udivsi3
                0x00001904                __umodsi3
 .text          0x00001960      0x494 c:/intelfpga_lite/23.1std/nios2eds/bin/gnu/h-x86_64-mingw32/bin/../lib/gcc/nios2-elf/12.3.1\libgcc.a(addsf3.o)
                0x00001960                __addsf3
 .text          0x00001df4      0x418 c:/intelfpga_lite/23.1std/nios2eds/bin/gnu/h-x86_64-mingw32/bin/../lib/gcc/nios2-elf/12.3.1\libgcc.a(divsf3.o)
                0x00001df4                __divsf3
 .text          0x0000220c       0xd4 c:/intelfpga_lite/23.1std/nios2eds/bin/gnu/h-x86_64-mingw32/bin/../lib/gcc/nios2-elf/12.3.1\libgcc.a(gesf2.o)
                0x0000220c                __gesf2
                0x0000220c                __gtsf2
 .text          0x000022e0       0xd0 c:/intelfpga_lite/23.1std/nios2eds/bin/gnu/h-x86_64-mingw32/bin/../lib/gcc/nios2-elf/12.3.1\libgcc.a(lesf2.o)
                0x000022e0                __ltsf2
                0x000022e0                __lesf2
 .text          0x000023b0      0x3e8 c:/intelfpga_lite/23.1std/nios2eds/bin/gnu/h-x86_64-mingw32/bin/../lib/gcc/nios2-elf/12.3.1\libgcc.a(mulsf3.o)
                0x000023b0                __mulsf3
 .text          0x00002798      0x524 c:/intelfpga_lite/23.1std/nios2eds/bin/gnu/h-x86_64-mingw32/bin/../lib/gcc/nios2-elf/12.3.1\libgcc.a(subsf3.o)
                0x00002798                __subsf3
 .text          0x00002cbc      0x10c c:/intelfpga_lite/23.1std/nios2eds/bin/gnu/h-x86_64-mingw32/bin/../lib/gcc/nios2-elf/12.3.1\libgcc.a(floatunsisf.o)
                0x00002cbc                __floatunsisf
 .text          0x00002dc8      0x904 c:/intelfpga_lite/23.1std/nios2eds/bin/gnu/h-x86_64-mingw32/bin/../lib/gcc/nios2-elf/12.3.1\libgcc.a(adddf3.o)
                0x00002dc8                __adddf3
 .text          0x000036cc      0x848 c:/intelfpga_lite/23.1std/nios2eds/bin/gnu/h-x86_64-mingw32/bin/../lib/gcc/nios2-elf/12.3.1\libgcc.a(divdf3.o)
                0x000036cc                __divdf3
 .text          0x00003f14       0x94 c:/intelfpga_lite/23.1std/nios2eds/bin/gnu/h-x86_64-mingw32/bin/../lib/gcc/nios2-elf/12.3.1\libgcc.a(eqdf2.o)
                0x00003f14                __nedf2
                0x00003f14                __eqdf2
 .text          0x00003fa8       0xfc c:/intelfpga_lite/23.1std/nios2eds/bin/gnu/h-x86_64-mingw32/bin/../lib/gcc/nios2-elf/12.3.1\libgcc.a(gedf2.o)
                0x00003fa8                __gedf2
                0x00003fa8                __gtdf2
 .text          0x000040a4       0xf8 c:/intelfpga_lite/23.1std/nios2eds/bin/gnu/h-x86_64-mingw32/bin/../lib/gcc/nios2-elf/12.3.1\libgcc.a(ledf2.o)
                0x000040a4                __ledf2
                0x000040a4                __ltdf2
 .text          0x0000419c      0x6d8 c:/intelfpga_lite/23.1std/nios2eds/bin/gnu/h-x86_64-mingw32/bin/../lib/gcc/nios2-elf/12.3.1\libgcc.a(muldf3.o)
                0x0000419c                __muldf3
 .text          0x00004874      0x99c c:/intelfpga_lite/23.1std/nios2eds/bin/gnu/h-x86_64-mingw32/bin/../lib/gcc/nios2-elf/12.3.1\libgcc.a(subdf3.o)
                0x00004874                __subdf3
 .text          0x00005210       0x54 c:/intelfpga_lite/23.1std/nios2eds/bin/gnu/h-x86_64-mingw32/bin/../lib/gcc/nios2-elf/12.3.1\libgcc.a(unorddf2.o)
                0x00005210                __unorddf2
 .text          0x00005264       0x80 c:/intelfpga_lite/23.1std/nios2eds/bin/gnu/h-x86_64-mingw32/bin/../lib/gcc/nios2-elf/12.3.1\libgcc.a(fixdfsi.o)
                0x00005264                __fixdfsi
 .text          0x000052e4       0xb8 c:/intelfpga_lite/23.1std/nios2eds/bin/gnu/h-x86_64-mingw32/bin/../lib/gcc/nios2-elf/12.3.1\libgcc.a(floatsidf.o)
                0x000052e4                __floatsidf
 .text          0x0000539c       0xfc c:/intelfpga_lite/23.1std/nios2eds/bin/gnu/h-x86_64-mingw32/bin/../lib/gcc/nios2-elf/12.3.1\libgcc.a(extendsfdf2.o)
                0x0000539c                __extendsfdf2
 .text          0x00005498      0x194 c:/intelfpga_lite/23.1std/nios2eds/bin/gnu/h-x86_64-mingw32/bin/../lib/gcc/nios2-elf/12.3.1\libgcc.a(truncdfsf2.o)
                0x00005498                __truncdfsf2
 .text          0x0000562c       0x50 c:/intelfpga_lite/23.1std/nios2eds/bin/gnu/h-x86_64-mingw32/bin/../lib/gcc/nios2-elf/12.3.1\libgcc.a(_clzsi2.o)
                0x0000562c                __clzsi2
 .text          0x0000567c        0x0 c:/intelfpga_lite/23.1std/nios2eds/bin/gnu/h-x86_64-mingw32/bin/../lib/gcc/nios2-elf/12.3.1\libgcc.a(_clz.o)
 .text          0x0000567c        0x0 c:/intelfpga_lite/23.1std/nios2eds/bin/gnu/h-x86_64-mingw32/bin/../lib/gcc/nios2-elf/12.3.1/../../../../../H-x86_64-mingw32/nios2-elf/lib\libc.a(libc_a-exit.o)
 .text.exit     0x0000567c       0x30 c:/intelfpga_lite/23.1std/nios2eds/bin/gnu/h-x86_64-mingw32/bin/../lib/gcc/nios2-elf/12.3.1/../../../../../H-x86_64-mingw32/nios2-elf/lib\libc.a(libc_a-exit.o)
                0x0000567c                exit
 .text          0x000056ac        0x0 c:/intelfpga_lite/23.1std/nios2eds/bin/gnu/h-x86_64-mingw32/bin/../lib/gcc/nios2-elf/12.3.1/../../../../../H-x86_64-mingw32/nios2-elf/lib\libc.a(libc_a-fclose.o)
 .text._fclose_r
                0x000056ac       0xf0 c:/intelfpga_lite/23.1std/nios2eds/bin/gnu/h-x86_64-mingw32/bin/../lib/gcc/nios2-elf/12.3.1/../../../../../H-x86_64-mingw32/nios2-elf/lib\libc.a(libc_a-fclose.o)
                0x000056ac                _fclose_r
 .text.fclose   0x0000579c       0x10 c:/intelfpga_lite/23.1std/nios2eds/bin/gnu/h-x86_64-mingw32/bin/../lib/gcc/nios2-elf/12.3.1/../../../../../H-x86_64-mingw32/nios2-elf/lib\libc.a(libc_a-fclose.o)
                0x0000579c                fclose
 .text          0x000057ac        0x0 c:/intelfpga_lite/23.1std/nios2eds/bin/gnu/h-x86_64-mingw32/bin/../lib/gcc/nios2-elf/12.3.1/../../../../../H-x86_64-mingw32/nios2-elf/lib\libc.a(libc_a-fflush.o)
 .text.__sflush_r
                0x000057ac      0x208 c:/intelfpga_lite/23.1std/nios2eds/bin/gnu/h-x86_64-mingw32/bin/../lib/gcc/nios2-elf/12.3.1/../../../../../H-x86_64-mingw32/nios2-elf/lib\libc.a(libc_a-fflush.o)
                0x000057ac                __sflush_r
 .text._fflush_r
                0x000059b4       0x5c c:/intelfpga_lite/23.1std/nios2eds/bin/gnu/h-x86_64-mingw32/bin/../lib/gcc/nios2-elf/12.3.1/../../../../../H-x86_64-mingw32/nios2-elf/lib\libc.a(libc_a-fflush.o)
                0x000059b4                _fflush_r
 .text.fflush   0x00005a10       0x8c c:/intelfpga_lite/23.1std/nios2eds/bin/gnu/h-x86_64-mingw32/bin/../lib/gcc/nios2-elf/12.3.1/../../../../../H-x86_64-mingw32/nios2-elf/lib\libc.a(libc_a-fflush.o)
                0x00005a10                fflush
 .text          0x00005a9c        0x0 c:/intelfpga_lite/23.1std/nios2eds/bin/gnu/h-x86_64-mingw32/bin/../lib/gcc/nios2-elf/12.3.1/../../../../../H-x86_64-mingw32/nios2-elf/lib\libc.a(libc_a-findfp.o)
 .text.__fp_lock
                0x00005a9c        0x8 c:/intelfpga_lite/23.1std/nios2eds/bin/gnu/h-x86_64-mingw32/bin/../lib/gcc/nios2-elf/12.3.1/../../../../../H-x86_64-mingw32/nios2-elf/lib\libc.a(libc_a-findfp.o)
 .text.stdio_exit_handler
                0x00005aa4       0x1c c:/intelfpga_lite/23.1std/nios2eds/bin/gnu/h-x86_64-mingw32/bin/../lib/gcc/nios2-elf/12.3.1/../../../../../H-x86_64-mingw32/nios2-elf/lib\libc.a(libc_a-findfp.o)
 .text.cleanup_stdio
                0x00005ac0       0x70 c:/intelfpga_lite/23.1std/nios2eds/bin/gnu/h-x86_64-mingw32/bin/../lib/gcc/nios2-elf/12.3.1/../../../../../H-x86_64-mingw32/nios2-elf/lib\libc.a(libc_a-findfp.o)
 .text.__fp_unlock
                0x00005b30        0x8 c:/intelfpga_lite/23.1std/nios2eds/bin/gnu/h-x86_64-mingw32/bin/../lib/gcc/nios2-elf/12.3.1/../../../../../H-x86_64-mingw32/nios2-elf/lib\libc.a(libc_a-findfp.o)
 .text.global_stdio_init.part.0
                0x00005b38      0x174 c:/intelfpga_lite/23.1std/nios2eds/bin/gnu/h-x86_64-mingw32/bin/../lib/gcc/nios2-elf/12.3.1/../../../../../H-x86_64-mingw32/nios2-elf/lib\libc.a(libc_a-findfp.o)
 .text.__sfp    0x00005cac      0x120 c:/intelfpga_lite/23.1std/nios2eds/bin/gnu/h-x86_64-mingw32/bin/../lib/gcc/nios2-elf/12.3.1/../../../../../H-x86_64-mingw32/nios2-elf/lib\libc.a(libc_a-findfp.o)
                0x00005cac                __sfp
 .text.__sinit  0x00005dcc       0x28 c:/intelfpga_lite/23.1std/nios2eds/bin/gnu/h-x86_64-mingw32/bin/../lib/gcc/nios2-elf/12.3.1/../../../../../H-x86_64-mingw32/nios2-elf/lib\libc.a(libc_a-findfp.o)
                0x00005dcc                __sinit
 .text.__sfp_lock_acquire
                0x00005df4        0x4 c:/intelfpga_lite/23.1std/nios2eds/bin/gnu/h-x86_64-mingw32/bin/../lib/gcc/nios2-elf/12.3.1/../../../../../H-x86_64-mingw32/nios2-elf/lib\libc.a(libc_a-findfp.o)
                0x00005df4                __sfp_lock_acquire
 .text.__sfp_lock_release
                0x00005df8        0x4 c:/intelfpga_lite/23.1std/nios2eds/bin/gnu/h-x86_64-mingw32/bin/../lib/gcc/nios2-elf/12.3.1/../../../../../H-x86_64-mingw32/nios2-elf/lib\libc.a(libc_a-findfp.o)
                0x00005df8                __sfp_lock_release
 .text.__fp_lock_all
                0x00005dfc       0x18 c:/intelfpga_lite/23.1std/nios2eds/bin/gnu/h-x86_64-mingw32/bin/../lib/gcc/nios2-elf/12.3.1/../../../../../H-x86_64-mingw32/nios2-elf/lib\libc.a(libc_a-findfp.o)
                0x00005dfc                __fp_lock_all
 .text.__fp_unlock_all
                0x00005e14       0x18 c:/intelfpga_lite/23.1std/nios2eds/bin/gnu/h-x86_64-mingw32/bin/../lib/gcc/nios2-elf/12.3.1/../../../../../H-x86_64-mingw32/nios2-elf/lib\libc.a(libc_a-findfp.o)
                0x00005e14                __fp_unlock_all
 .text          0x00005e2c        0x0 c:/intelfpga_lite/23.1std/nios2eds/bin/gnu/h-x86_64-mingw32/bin/../lib/gcc/nios2-elf/12.3.1/../../../../../H-x86_64-mingw32/nios2-elf/lib\libc.a(libc_a-fopen.o)
 .text._fopen_r
                0x00005e2c       0xf8 c:/intelfpga_lite/23.1std/nios2eds/bin/gnu/h-x86_64-mingw32/bin/../lib/gcc/nios2-elf/12.3.1/../../../../../H-x86_64-mingw32/nios2-elf/lib\libc.a(libc_a-fopen.o)
                0x00005e2c                _fopen_r
 .text.fopen    0x00005f24       0x18 c:/intelfpga_lite/23.1std/nios2eds/bin/gnu/h-x86_64-mingw32/bin/../lib/gcc/nios2-elf/12.3.1/../../../../../H-x86_64-mingw32/nios2-elf/lib\libc.a(libc_a-fopen.o)
                0x00005f24                fopen
 .text          0x00005f3c        0x0 c:/intelfpga_lite/23.1std/nios2eds/bin/gnu/h-x86_64-mingw32/bin/../lib/gcc/nios2-elf/12.3.1/../../../../../H-x86_64-mingw32/nios2-elf/lib\libc.a(libc_a-fread.o)
 .text._fread_r
                0x00005f3c      0x230 c:/intelfpga_lite/23.1std/nios2eds/bin/gnu/h-x86_64-mingw32/bin/../lib/gcc/nios2-elf/12.3.1/../../../../../H-x86_64-mingw32/nios2-elf/lib\libc.a(libc_a-fread.o)
                0x00005f3c                _fread_r
 .text.fread    0x0000616c       0x34 c:/intelfpga_lite/23.1std/nios2eds/bin/gnu/h-x86_64-mingw32/bin/../lib/gcc/nios2-elf/12.3.1/../../../../../H-x86_64-mingw32/nios2-elf/lib\libc.a(libc_a-fread.o)
                0x0000616c                fread
 .text          0x000061a0        0x0 c:/intelfpga_lite/23.1std/nios2eds/bin/gnu/h-x86_64-mingw32/bin/../lib/gcc/nios2-elf/12.3.1/../../../../../H-x86_64-mingw32/nios2-elf/lib\libc.a(libc_a-fseek.o)
 .text._fseek_r
                0x000061a0        0x4 c:/intelfpga_lite/23.1std/nios2eds/bin/gnu/h-x86_64-mingw32/bin/../lib/gcc/nios2-elf/12.3.1/../../../../../H-x86_64-mingw32/nios2-elf/lib\libc.a(libc_a-fseek.o)
                0x000061a0                _fseek_r
 .text.fseek    0x000061a4       0x1c c:/intelfpga_lite/23.1std/nios2eds/bin/gnu/h-x86_64-mingw32/bin/../lib/gcc/nios2-elf/12.3.1/../../../../../H-x86_64-mingw32/nios2-elf/lib\libc.a(libc_a-fseek.o)
                0x000061a4                fseek
 .text          0x000061c0        0x0 c:/intelfpga_lite/23.1std/nios2eds/bin/gnu/h-x86_64-mingw32/bin/../lib/gcc/nios2-elf/12.3.1/../../../../../H-x86_64-mingw32/nios2-elf/lib\libc.a(libc_a-fwalk.o)
 .text._fwalk_sglue
                0x000061c0       0xa8 c:/intelfpga_lite/23.1std/nios2eds/bin/gnu/h-x86_64-mingw32/bin/../lib/gcc/nios2-elf/12.3.1/../../../../../H-x86_64-mingw32/nios2-elf/lib\libc.a(libc_a-fwalk.o)
                0x000061c0                _fwalk_sglue
 .text          0x00006268        0x0 c:/intelfpga_lite/23.1std/nios2eds/bin/gnu/h-x86_64-mingw32/bin/../lib/gcc/nios2-elf/12.3.1/../../../../../H-x86_64-mingw32/nios2-elf/lib\libc.a(libc_a-printf.o)
 .text._printf_r
                0x00006268       0x30 c:/intelfpga_lite/23.1std/nios2eds/bin/gnu/h-x86_64-mingw32/bin/../lib/gcc/nios2-elf/12.3.1/../../../../../H-x86_64-mingw32/nios2-elf/lib\libc.a(libc_a-printf.o)
                0x00006268                _printf_r
 .text.printf   0x00006298       0x38 c:/intelfpga_lite/23.1std/nios2eds/bin/gnu/h-x86_64-mingw32/bin/../lib/gcc/nios2-elf/12.3.1/../../../../../H-x86_64-mingw32/nios2-elf/lib\libc.a(libc_a-printf.o)
                0x00006298                printf
 .text          0x000062d0        0x0 c:/intelfpga_lite/23.1std/nios2eds/bin/gnu/h-x86_64-mingw32/bin/../lib/gcc/nios2-elf/12.3.1/../../../../../H-x86_64-mingw32/nios2-elf/lib\libc.a(libc_a-putchar.o)
 .text._putchar_r
                0x000062d0        0x8 c:/intelfpga_lite/23.1std/nios2eds/bin/gnu/h-x86_64-mingw32/bin/../lib/gcc/nios2-elf/12.3.1/../../../../../H-x86_64-mingw32/nios2-elf/lib\libc.a(libc_a-putchar.o)
                0x000062d0                _putchar_r
 .text.putchar  0x000062d8       0x18 c:/intelfpga_lite/23.1std/nios2eds/bin/gnu/h-x86_64-mingw32/bin/../lib/gcc/nios2-elf/12.3.1/../../../../../H-x86_64-mingw32/nios2-elf/lib\libc.a(libc_a-putchar.o)
                0x000062d8                putchar
 .text          0x000062f0        0x0 c:/intelfpga_lite/23.1std/nios2eds/bin/gnu/h-x86_64-mingw32/bin/../lib/gcc/nios2-elf/12.3.1/../../../../../H-x86_64-mingw32/nios2-elf/lib\libc.a(libc_a-puts.o)
 .text._puts_r  0x000062f0       0xd0 c:/intelfpga_lite/23.1std/nios2eds/bin/gnu/h-x86_64-mingw32/bin/../lib/gcc/nios2-elf/12.3.1/../../../../../H-x86_64-mingw32/nios2-elf/lib\libc.a(libc_a-puts.o)
                0x000062f0                _puts_r
 .text.puts     0x000063c0       0x10 c:/intelfpga_lite/23.1std/nios2eds/bin/gnu/h-x86_64-mingw32/bin/../lib/gcc/nios2-elf/12.3.1/../../../../../H-x86_64-mingw32/nios2-elf/lib\libc.a(libc_a-puts.o)
                0x000063c0                puts
 .text          0x000063d0        0x0 c:/intelfpga_lite/23.1std/nios2eds/bin/gnu/h-x86_64-mingw32/bin/../lib/gcc/nios2-elf/12.3.1/../../../../../H-x86_64-mingw32/nios2-elf/lib\libc.a(libc_a-refill.o)
 .text.lflush   0x000063d0       0x24 c:/intelfpga_lite/23.1std/nios2eds/bin/gnu/h-x86_64-mingw32/bin/../lib/gcc/nios2-elf/12.3.1/../../../../../H-x86_64-mingw32/nios2-elf/lib\libc.a(libc_a-refill.o)
 .text.__srefill_r
                0x000063f4      0x1c0 c:/intelfpga_lite/23.1std/nios2eds/bin/gnu/h-x86_64-mingw32/bin/../lib/gcc/nios2-elf/12.3.1/../../../../../H-x86_64-mingw32/nios2-elf/lib\libc.a(libc_a-refill.o)
                0x000063f4                __srefill_r
 .text          0x000065b4        0x0 c:/intelfpga_lite/23.1std/nios2eds/bin/gnu/h-x86_64-mingw32/bin/../lib/gcc/nios2-elf/12.3.1/../../../../../H-x86_64-mingw32/nios2-elf/lib\libc.a(libc_a-stdio.o)
 .text.__sread  0x000065b4       0x54 c:/intelfpga_lite/23.1std/nios2eds/bin/gnu/h-x86_64-mingw32/bin/../lib/gcc/nios2-elf/12.3.1/../../../../../H-x86_64-mingw32/nios2-elf/lib\libc.a(libc_a-stdio.o)
                0x000065b4                __sread
 .text.__seofread
                0x00006608        0x8 c:/intelfpga_lite/23.1std/nios2eds/bin/gnu/h-x86_64-mingw32/bin/../lib/gcc/nios2-elf/12.3.1/../../../../../H-x86_64-mingw32/nios2-elf/lib\libc.a(libc_a-stdio.o)
                0x00006608                __seofread
 .text.__swrite
                0x00006610       0x80 c:/intelfpga_lite/23.1std/nios2eds/bin/gnu/h-x86_64-mingw32/bin/../lib/gcc/nios2-elf/12.3.1/../../../../../H-x86_64-mingw32/nios2-elf/lib\libc.a(libc_a-stdio.o)
                0x00006610                __swrite
 .text.__sseek  0x00006690       0x5c c:/intelfpga_lite/23.1std/nios2eds/bin/gnu/h-x86_64-mingw32/bin/../lib/gcc/nios2-elf/12.3.1/../../../../../H-x86_64-mingw32/nios2-elf/lib\libc.a(libc_a-stdio.o)
                0x00006690                __sseek
 .text.__sclose
                0x000066ec        0x8 c:/intelfpga_lite/23.1std/nios2eds/bin/gnu/h-x86_64-mingw32/bin/../lib/gcc/nios2-elf/12.3.1/../../../../../H-x86_64-mingw32/nios2-elf/lib\libc.a(libc_a-stdio.o)
                0x000066ec                __sclose
 .text          0x000066f4        0x0 c:/intelfpga_lite/23.1std/nios2eds/bin/gnu/h-x86_64-mingw32/bin/../lib/gcc/nios2-elf/12.3.1/../../../../../H-x86_64-mingw32/nios2-elf/lib\libc.a(libc_a-fseeko.o)
 .text._fseeko_r
                0x000066f4      0x420 c:/intelfpga_lite/23.1std/nios2eds/bin/gnu/h-x86_64-mingw32/bin/../lib/gcc/nios2-elf/12.3.1/../../../../../H-x86_64-mingw32/nios2-elf/lib\libc.a(libc_a-fseeko.o)
                0x000066f4                _fseeko_r
 .text.fseeko   0x00006b14       0x1c c:/intelfpga_lite/23.1std/nios2eds/bin/gnu/h-x86_64-mingw32/bin/../lib/gcc/nios2-elf/12.3.1/../../../../../H-x86_64-mingw32/nios2-elf/lib\libc.a(libc_a-fseeko.o)
                0x00006b14                fseeko
 .text          0x00006b30        0x0 c:/intelfpga_lite/23.1std/nios2eds/bin/gnu/h-x86_64-mingw32/bin/../lib/gcc/nios2-elf/12.3.1/../../../../../H-x86_64-mingw32/nios2-elf/lib\libc.a(libc_a-memcpy.o)
 .text.memcpy   0x00006b30      0x100 c:/intelfpga_lite/23.1std/nios2eds/bin/gnu/h-x86_64-mingw32/bin/../lib/gcc/nios2-elf/12.3.1/../../../../../H-x86_64-mingw32/nios2-elf/lib\libc.a(libc_a-memcpy.o)
                0x00006b30                memcpy
 .text          0x00006c30        0x0 c:/intelfpga_lite/23.1std/nios2eds/bin/gnu/h-x86_64-mingw32/bin/../lib/gcc/nios2-elf/12.3.1/../../../../../H-x86_64-mingw32/nios2-elf/lib\libc.a(libc_a-memset.o)
 .text.memset   0x00006c30       0xf8 c:/intelfpga_lite/23.1std/nios2eds/bin/gnu/h-x86_64-mingw32/bin/../lib/gcc/nios2-elf/12.3.1/../../../../../H-x86_64-mingw32/nios2-elf/lib\libc.a(libc_a-memset.o)
                0x00006c30                memset
 .text          0x00006d28        0x0 c:/intelfpga_lite/23.1std/nios2eds/bin/gnu/h-x86_64-mingw32/bin/../lib/gcc/nios2-elf/12.3.1/../../../../../H-x86_64-mingw32/nios2-elf/lib\libc.a(libc_a-strlen.o)
 .text.strlen   0x00006d28       0x98 c:/intelfpga_lite/23.1std/nios2eds/bin/gnu/h-x86_64-mingw32/bin/../lib/gcc/nios2-elf/12.3.1/../../../../../H-x86_64-mingw32/nios2-elf/lib\libc.a(libc_a-strlen.o)
                0x00006d28                strlen
 .text          0x00006dc0        0x0 c:/intelfpga_lite/23.1std/nios2eds/bin/gnu/h-x86_64-mingw32/bin/../lib/gcc/nios2-elf/12.3.1/../../../../../H-x86_64-mingw32/nios2-elf/lib\libc.a(libc_a-closer.o)
 .text._close_r
                0x00006dc0       0x58 c:/intelfpga_lite/23.1std/nios2eds/bin/gnu/h-x86_64-mingw32/bin/../lib/gcc/nios2-elf/12.3.1/../../../../../H-x86_64-mingw32/nios2-elf/lib\libc.a(libc_a-closer.o)
                0x00006dc0                _close_r
 .text          0x00006e18        0x0 c:/intelfpga_lite/23.1std/nios2eds/bin/gnu/h-x86_64-mingw32/bin/../lib/gcc/nios2-elf/12.3.1/../../../../../H-x86_64-mingw32/nios2-elf/lib\libc.a(libc_a-reent.o)
 .text._reclaim_reent
                0x00006e18       0xc8 c:/intelfpga_lite/23.1std/nios2eds/bin/gnu/h-x86_64-mingw32/bin/../lib/gcc/nios2-elf/12.3.1/../../../../../H-x86_64-mingw32/nios2-elf/lib\libc.a(libc_a-reent.o)
                0x00006e18                _reclaim_reent
 .text          0x00006ee0        0x0 c:/intelfpga_lite/23.1std/nios2eds/bin/gnu/h-x86_64-mingw32/bin/../lib/gcc/nios2-elf/12.3.1/../../../../../H-x86_64-mingw32/nios2-elf/lib\libc.a(libc_a-impure.o)
 .text          0x00006ee0        0x0 c:/intelfpga_lite/23.1std/nios2eds/bin/gnu/h-x86_64-mingw32/bin/../lib/gcc/nios2-elf/12.3.1/../../../../../H-x86_64-mingw32/nios2-elf/lib\libc.a(libc_a-fstatr.o)
 .text._fstat_r
                0x00006ee0       0x60 c:/intelfpga_lite/23.1std/nios2eds/bin/gnu/h-x86_64-mingw32/bin/../lib/gcc/nios2-elf/12.3.1/../../../../../H-x86_64-mingw32/nios2-elf/lib\libc.a(libc_a-fstatr.o)
                0x00006ee0                _fstat_r
 .text          0x00006f40        0x0 c:/intelfpga_lite/23.1std/nios2eds/bin/gnu/h-x86_64-mingw32/bin/../lib/gcc/nios2-elf/12.3.1/../../../../../H-x86_64-mingw32/nios2-elf/lib\libc.a(libc_a-lseekr.o)
 .text._lseek_r
                0x00006f40       0x64 c:/intelfpga_lite/23.1std/nios2eds/bin/gnu/h-x86_64-mingw32/bin/../lib/gcc/nios2-elf/12.3.1/../../../../../H-x86_64-mingw32/nios2-elf/lib\libc.a(libc_a-lseekr.o)
                0x00006f40                _lseek_r
 .text          0x00006fa4        0x0 c:/intelfpga_lite/23.1std/nios2eds/bin/gnu/h-x86_64-mingw32/bin/../lib/gcc/nios2-elf/12.3.1/../../../../../H-x86_64-mingw32/nios2-elf/lib\libc.a(libc_a-openr.o)
 .text._open_r  0x00006fa4       0x64 c:/intelfpga_lite/23.1std/nios2eds/bin/gnu/h-x86_64-mingw32/bin/../lib/gcc/nios2-elf/12.3.1/../../../../../H-x86_64-mingw32/nios2-elf/lib\libc.a(libc_a-openr.o)
                0x00006fa4                _open_r
 .text          0x00007008        0x0 c:/intelfpga_lite/23.1std/nios2eds/bin/gnu/h-x86_64-mingw32/bin/../lib/gcc/nios2-elf/12.3.1/../../../../../H-x86_64-mingw32/nios2-elf/lib\libc.a(libc_a-readr.o)
 .text._read_r  0x00007008       0x64 c:/intelfpga_lite/23.1std/nios2eds/bin/gnu/h-x86_64-mingw32/bin/../lib/gcc/nios2-elf/12.3.1/../../../../../H-x86_64-mingw32/nios2-elf/lib\libc.a(libc_a-readr.o)
                0x00007008                _read_r
 .text          0x0000706c        0x0 c:/intelfpga_lite/23.1std/nios2eds/bin/gnu/h-x86_64-mingw32/bin/../lib/gcc/nios2-elf/12.3.1/../../../../../H-x86_64-mingw32/nios2-elf/lib\libc.a(libc_a-writer.o)
 .text._write_r
                0x0000706c       0x64 c:/intelfpga_lite/23.1std/nios2eds/bin/gnu/h-x86_64-mingw32/bin/../lib/gcc/nios2-elf/12.3.1/../../../../../H-x86_64-mingw32/nios2-elf/lib\libc.a(libc_a-writer.o)
                0x0000706c                _write_r
 .text          0x000070d0        0x0 c:/intelfpga_lite/23.1std/nios2eds/bin/gnu/h-x86_64-mingw32/bin/../lib/gcc/nios2-elf/12.3.1/../../../../../H-x86_64-mingw32/nios2-elf/lib\libc.a(libc_a-errno.o)
 .text.__errno  0x000070d0        0xc c:/intelfpga_lite/23.1std/nios2eds/bin/gnu/h-x86_64-mingw32/bin/../lib/gcc/nios2-elf/12.3.1/../../../../../H-x86_64-mingw32/nios2-elf/lib\libc.a(libc_a-errno.o)
                0x000070d0                __errno
 .text          0x000070dc        0x0 c:/intelfpga_lite/23.1std/nios2eds/bin/gnu/h-x86_64-mingw32/bin/../lib/gcc/nios2-elf/12.3.1/../../../../../H-x86_64-mingw32/nios2-elf/lib\libc.a(libc_a-__call_atexit.o)
 .text.__call_exitprocs
                0x000070dc      0x118 c:/intelfpga_lite/23.1std/nios2eds/bin/gnu/h-x86_64-mingw32/bin/../lib/gcc/nios2-elf/12.3.1/../../../../../H-x86_64-mingw32/nios2-elf/lib\libc.a(libc_a-__call_atexit.o)
                0x000070dc                __call_exitprocs
 .text          0x000071f4        0x0 c:/intelfpga_lite/23.1std/nios2eds/bin/gnu/h-x86_64-mingw32/bin/../lib/gcc/nios2-elf/12.3.1/../../../../../H-x86_64-mingw32/nios2-elf/lib\libc.a(libc_a-freer.o)
 .text._malloc_trim_r
                0x000071f4      0x124 c:/intelfpga_lite/23.1std/nios2eds/bin/gnu/h-x86_64-mingw32/bin/../lib/gcc/nios2-elf/12.3.1/../../../../../H-x86_64-mingw32/nios2-elf/lib\libc.a(libc_a-freer.o)
                0x000071f4                _malloc_trim_r
 .text._free_r  0x00007318      0x308 c:/intelfpga_lite/23.1std/nios2eds/bin/gnu/h-x86_64-mingw32/bin/../lib/gcc/nios2-elf/12.3.1/../../../../../H-x86_64-mingw32/nios2-elf/lib\libc.a(libc_a-freer.o)
                0x00007318                _free_r
 .text          0x00007620        0x0 c:/intelfpga_lite/23.1std/nios2eds/bin/gnu/h-x86_64-mingw32/bin/../lib/gcc/nios2-elf/12.3.1/../../../../../H-x86_64-mingw32/nios2-elf/lib\libc.a(libc_a-mallocr.o)
 .text._malloc_r
                0x00007620      0x7c8 c:/intelfpga_lite/23.1std/nios2eds/bin/gnu/h-x86_64-mingw32/bin/../lib/gcc/nios2-elf/12.3.1/../../../../../H-x86_64-mingw32/nios2-elf/lib\libc.a(libc_a-mallocr.o)
                0x00007620                _malloc_r
 .text          0x00007de8        0x0 c:/intelfpga_lite/23.1std/nios2eds/bin/gnu/h-x86_64-mingw32/bin/../lib/gcc/nios2-elf/12.3.1/../../../../../H-x86_64-mingw32/nios2-elf/lib\libc.a(libc_a-vfprintf.o)
 .text.___vfprintf_internal_r
                0x00007de8     0x2300 c:/intelfpga_lite/23.1std/nios2eds/bin/gnu/h-x86_64-mingw32/bin/../lib/gcc/nios2-elf/12.3.1/../../../../../H-x86_64-mingw32/nios2-elf/lib\libc.a(libc_a-vfprintf.o)
                0x00007de8                ___vfprintf_internal_r
 .text.__vfprintf_internal
                0x0000a0e8       0x1c c:/intelfpga_lite/23.1std/nios2eds/bin/gnu/h-x86_64-mingw32/bin/../lib/gcc/nios2-elf/12.3.1/../../../../../H-x86_64-mingw32/nios2-elf/lib\libc.a(libc_a-vfprintf.o)
                0x0000a0e8                __vfprintf_internal
 .text.__sbprintf
                0x0000a104       0xc4 c:/intelfpga_lite/23.1std/nios2eds/bin/gnu/h-x86_64-mingw32/bin/../lib/gcc/nios2-elf/12.3.1/../../../../../H-x86_64-mingw32/nios2-elf/lib\libc.a(libc_a-vfprintf.o)
 .text          0x0000a1c8        0x0 c:/intelfpga_lite/23.1std/nios2eds/bin/gnu/h-x86_64-mingw32/bin/../lib/gcc/nios2-elf/12.3.1/../../../../../H-x86_64-mingw32/nios2-elf/lib\libc.a(libc_a-vfiprintf.o)
 .text.__sprint_r.part.0
                0x0000a1c8       0xf4 c:/intelfpga_lite/23.1std/nios2eds/bin/gnu/h-x86_64-mingw32/bin/../lib/gcc/nios2-elf/12.3.1/../../../../../H-x86_64-mingw32/nios2-elf/lib\libc.a(libc_a-vfiprintf.o)
 .text.__sprint_r
                0x0000a2bc       0x18 c:/intelfpga_lite/23.1std/nios2eds/bin/gnu/h-x86_64-mingw32/bin/../lib/gcc/nios2-elf/12.3.1/../../../../../H-x86_64-mingw32/nios2-elf/lib\libc.a(libc_a-vfiprintf.o)
                0x0000a2bc                __sprint_r
 .text.___vfiprintf_internal_r
                0x0000a2d4     0x128c c:/intelfpga_lite/23.1std/nios2eds/bin/gnu/h-x86_64-mingw32/bin/../lib/gcc/nios2-elf/12.3.1/../../../../../H-x86_64-mingw32/nios2-elf/lib\libc.a(libc_a-vfiprintf.o)
                0x0000a2d4                ___vfiprintf_internal_r
 .text.__vfiprintf_internal
                0x0000b560       0x1c c:/intelfpga_lite/23.1std/nios2eds/bin/gnu/h-x86_64-mingw32/bin/../lib/gcc/nios2-elf/12.3.1/../../../../../H-x86_64-mingw32/nios2-elf/lib\libc.a(libc_a-vfiprintf.o)
                0x0000b560                __vfiprintf_internal
 .text.__sbprintf
                0x0000b57c       0xc4 c:/intelfpga_lite/23.1std/nios2eds/bin/gnu/h-x86_64-mingw32/bin/../lib/gcc/nios2-elf/12.3.1/../../../../../H-x86_64-mingw32/nios2-elf/lib\libc.a(libc_a-vfiprintf.o)
 .text          0x0000b640        0x0 c:/intelfpga_lite/23.1std/nios2eds/bin/gnu/h-x86_64-mingw32/bin/../lib/gcc/nios2-elf/12.3.1/../../../../../H-x86_64-mingw32/nios2-elf/lib\libc.a(libc_a-flags.o)
 .text.__sflags
                0x0000b640       0xb8 c:/intelfpga_lite/23.1std/nios2eds/bin/gnu/h-x86_64-mingw32/bin/../lib/gcc/nios2-elf/12.3.1/../../../../../H-x86_64-mingw32/nios2-elf/lib\libc.a(libc_a-flags.o)
                0x0000b640                __sflags
 .text          0x0000b6f8        0x0 c:/intelfpga_lite/23.1std/nios2eds/bin/gnu/h-x86_64-mingw32/bin/../lib/gcc/nios2-elf/12.3.1/../../../../../H-x86_64-mingw32/nios2-elf/lib\libc.a(libc_a-fvwrite.o)
 .text.__sfvwrite_r
                0x0000b6f8      0x49c c:/intelfpga_lite/23.1std/nios2eds/bin/gnu/h-x86_64-mingw32/bin/../lib/gcc/nios2-elf/12.3.1/../../../../../H-x86_64-mingw32/nios2-elf/lib\libc.a(libc_a-fvwrite.o)
                0x0000b6f8                __sfvwrite_r
 .text          0x0000bb94        0x0 c:/intelfpga_lite/23.1std/nios2eds/bin/gnu/h-x86_64-mingw32/bin/../lib/gcc/nios2-elf/12.3.1/../../../../../H-x86_64-mingw32/nios2-elf/lib\libc.a(libc_a-makebuf.o)
 .text.__smakebuf_r
                0x0000bb94      0x1a8 c:/intelfpga_lite/23.1std/nios2eds/bin/gnu/h-x86_64-mingw32/bin/../lib/gcc/nios2-elf/12.3.1/../../../../../H-x86_64-mingw32/nios2-elf/lib\libc.a(libc_a-makebuf.o)
                0x0000bb94                __smakebuf_r
 .text.__swhatbuf_r
                0x0000bd3c       0x8c c:/intelfpga_lite/23.1std/nios2eds/bin/gnu/h-x86_64-mingw32/bin/../lib/gcc/nios2-elf/12.3.1/../../../../../H-x86_64-mingw32/nios2-elf/lib\libc.a(libc_a-makebuf.o)
                0x0000bd3c                __swhatbuf_r
 .text          0x0000bdc8        0x0 c:/intelfpga_lite/23.1std/nios2eds/bin/gnu/h-x86_64-mingw32/bin/../lib/gcc/nios2-elf/12.3.1/../../../../../H-x86_64-mingw32/nios2-elf/lib\libc.a(libc_a-putc.o)
 .text._putc_r  0x0000bdc8       0xc0 c:/intelfpga_lite/23.1std/nios2eds/bin/gnu/h-x86_64-mingw32/bin/../lib/gcc/nios2-elf/12.3.1/../../../../../H-x86_64-mingw32/nios2-elf/lib\libc.a(libc_a-putc.o)
                0x0000bdc8                _putc_r
 .text.putc     0x0000be88       0xd4 c:/intelfpga_lite/23.1std/nios2eds/bin/gnu/h-x86_64-mingw32/bin/../lib/gcc/nios2-elf/12.3.1/../../../../../H-x86_64-mingw32/nios2-elf/lib\libc.a(libc_a-putc.o)
                0x0000be88                putc
 .text          0x0000bf5c        0x0 c:/intelfpga_lite/23.1std/nios2eds/bin/gnu/h-x86_64-mingw32/bin/../lib/gcc/nios2-elf/12.3.1/../../../../../H-x86_64-mingw32/nios2-elf/lib\libc.a(libc_a-wbuf.o)
 .text.__swbuf_r
                0x0000bf5c      0x148 c:/intelfpga_lite/23.1std/nios2eds/bin/gnu/h-x86_64-mingw32/bin/../lib/gcc/nios2-elf/12.3.1/../../../../../H-x86_64-mingw32/nios2-elf/lib\libc.a(libc_a-wbuf.o)
                0x0000bf5c                __swbuf_r
 .text.__swbuf  0x0000c0a4       0x18 c:/intelfpga_lite/23.1std/nios2eds/bin/gnu/h-x86_64-mingw32/bin/../lib/gcc/nios2-elf/12.3.1/../../../../../H-x86_64-mingw32/nios2-elf/lib\libc.a(libc_a-wbuf.o)
                0x0000c0a4                __swbuf
 .text          0x0000c0bc        0x0 c:/intelfpga_lite/23.1std/nios2eds/bin/gnu/h-x86_64-mingw32/bin/../lib/gcc/nios2-elf/12.3.1/../../../../../H-x86_64-mingw32/nios2-elf/lib\libc.a(libc_a-wsetup.o)
 .text.__swsetup_r
                0x0000c0bc      0x144 c:/intelfpga_lite/23.1std/nios2eds/bin/gnu/h-x86_64-mingw32/bin/../lib/gcc/nios2-elf/12.3.1/../../../../../H-x86_64-mingw32/nios2-elf/lib\libc.a(libc_a-wsetup.o)
                0x0000c0bc                __swsetup_r
 .text          0x0000c200        0x0 c:/intelfpga_lite/23.1std/nios2eds/bin/gnu/h-x86_64-mingw32/bin/../lib/gcc/nios2-elf/12.3.1/../../../../../H-x86_64-mingw32/nios2-elf/lib\libc.a(libc_a-fputwc.o)
 .text.__fputwc
                0x0000c200      0x164 c:/intelfpga_lite/23.1std/nios2eds/bin/gnu/h-x86_64-mingw32/bin/../lib/gcc/nios2-elf/12.3.1/../../../../../H-x86_64-mingw32/nios2-elf/lib\libc.a(libc_a-fputwc.o)
                0x0000c200                __fputwc
 .text._fputwc_r
                0x0000c364       0x24 c:/intelfpga_lite/23.1std/nios2eds/bin/gnu/h-x86_64-mingw32/bin/../lib/gcc/nios2-elf/12.3.1/../../../../../H-x86_64-mingw32/nios2-elf/lib\libc.a(libc_a-fputwc.o)
                0x0000c364                _fputwc_r
 .text.fputwc   0x0000c388       0x78 c:/intelfpga_lite/23.1std/nios2eds/bin/gnu/h-x86_64-mingw32/bin/../lib/gcc/nios2-elf/12.3.1/../../../../../H-x86_64-mingw32/nios2-elf/lib\libc.a(libc_a-fputwc.o)
                0x0000c388                fputwc
 .text          0x0000c400        0x0 c:/intelfpga_lite/23.1std/nios2eds/bin/gnu/h-x86_64-mingw32/bin/../lib/gcc/nios2-elf/12.3.1/../../../../../H-x86_64-mingw32/nios2-elf/lib\libc.a(libc_a-memchr.o)
 .text.memchr   0x0000c400       0xd0 c:/intelfpga_lite/23.1std/nios2eds/bin/gnu/h-x86_64-mingw32/bin/../lib/gcc/nios2-elf/12.3.1/../../../../../H-x86_64-mingw32/nios2-elf/lib\libc.a(libc_a-memchr.o)
                0x0000c400                memchr
 .text          0x0000c4d0        0x0 c:/intelfpga_lite/23.1std/nios2eds/bin/gnu/h-x86_64-mingw32/bin/../lib/gcc/nios2-elf/12.3.1/../../../../../H-x86_64-mingw32/nios2-elf/lib\libc.a(libc_a-memmove.o)
 .text.memmove  0x0000c4d0      0x128 c:/intelfpga_lite/23.1std/nios2eds/bin/gnu/h-x86_64-mingw32/bin/../lib/gcc/nios2-elf/12.3.1/../../../../../H-x86_64-mingw32/nios2-elf/lib\libc.a(libc_a-memmove.o)
                0x0000c4d0                memmove
 .text          0x0000c5f8        0x0 c:/intelfpga_lite/23.1std/nios2eds/bin/gnu/h-x86_64-mingw32/bin/../lib/gcc/nios2-elf/12.3.1/../../../../../H-x86_64-mingw32/nios2-elf/lib\libc.a(libc_a-locale.o)
 .text._setlocale_r
                0x0000c5f8       0x7c c:/intelfpga_lite/23.1std/nios2eds/bin/gnu/h-x86_64-mingw32/bin/../lib/gcc/nios2-elf/12.3.1/../../../../../H-x86_64-mingw32/nios2-elf/lib\libc.a(libc_a-locale.o)
                0x0000c5f8                _setlocale_r
 .text.__locale_mb_cur_max
                0x0000c674        0xc c:/intelfpga_lite/23.1std/nios2eds/bin/gnu/h-x86_64-mingw32/bin/../lib/gcc/nios2-elf/12.3.1/../../../../../H-x86_64-mingw32/nios2-elf/lib\libc.a(libc_a-locale.o)
                0x0000c674                __locale_mb_cur_max
 .text.setlocale
                0x0000c680       0x7c c:/intelfpga_lite/23.1std/nios2eds/bin/gnu/h-x86_64-mingw32/bin/../lib/gcc/nios2-elf/12.3.1/../../../../../H-x86_64-mingw32/nios2-elf/lib\libc.a(libc_a-locale.o)
                0x0000c680                setlocale
 .text          0x0000c6fc        0x0 c:/intelfpga_lite/23.1std/nios2eds/bin/gnu/h-x86_64-mingw32/bin/../lib/gcc/nios2-elf/12.3.1/../../../../../H-x86_64-mingw32/nios2-elf/lib\libc.a(libc_a-localeconv.o)
 .text.__localeconv_l
                0x0000c6fc        0x8 c:/intelfpga_lite/23.1std/nios2eds/bin/gnu/h-x86_64-mingw32/bin/../lib/gcc/nios2-elf/12.3.1/../../../../../H-x86_64-mingw32/nios2-elf/lib\libc.a(libc_a-localeconv.o)
                0x0000c6fc                __localeconv_l
 .text._localeconv_r
                0x0000c704        0xc c:/intelfpga_lite/23.1std/nios2eds/bin/gnu/h-x86_64-mingw32/bin/../lib/gcc/nios2-elf/12.3.1/../../../../../H-x86_64-mingw32/nios2-elf/lib\libc.a(libc_a-localeconv.o)
                0x0000c704                _localeconv_r
 .text.localeconv
                0x0000c710        0xc c:/intelfpga_lite/23.1std/nios2eds/bin/gnu/h-x86_64-mingw32/bin/../lib/gcc/nios2-elf/12.3.1/../../../../../H-x86_64-mingw32/nios2-elf/lib\libc.a(libc_a-localeconv.o)
                0x0000c710                localeconv
 .text          0x0000c71c        0x0 c:/intelfpga_lite/23.1std/nios2eds/bin/gnu/h-x86_64-mingw32/bin/../lib/gcc/nios2-elf/12.3.1/../../../../../H-x86_64-mingw32/nios2-elf/lib\libc.a(libc_a-isattyr.o)
 .text._isatty_r
                0x0000c71c       0x58 c:/intelfpga_lite/23.1std/nios2eds/bin/gnu/h-x86_64-mingw32/bin/../lib/gcc/nios2-elf/12.3.1/../../../../../H-x86_64-mingw32/nios2-elf/lib\libc.a(libc_a-isattyr.o)
                0x0000c71c                _isatty_r
 .text          0x0000c774        0x0 c:/intelfpga_lite/23.1std/nios2eds/bin/gnu/h-x86_64-mingw32/bin/../lib/gcc/nios2-elf/12.3.1/../../../../../H-x86_64-mingw32/nios2-elf/lib\libc.a(libc_a-sbrkr.o)
 .text._sbrk_r  0x0000c774       0x58 c:/intelfpga_lite/23.1std/nios2eds/bin/gnu/h-x86_64-mingw32/bin/../lib/gcc/nios2-elf/12.3.1/../../../../../H-x86_64-mingw32/nios2-elf/lib\libc.a(libc_a-sbrkr.o)
                0x0000c774                _sbrk_r
 .text          0x0000c7cc        0x0 c:/intelfpga_lite/23.1std/nios2eds/bin/gnu/h-x86_64-mingw32/bin/../lib/gcc/nios2-elf/12.3.1/../../../../../H-x86_64-mingw32/nios2-elf/lib\libc.a(libc_a-dtoa.o)
 .text.quorem   0x0000c7cc      0x1fc c:/intelfpga_lite/23.1std/nios2eds/bin/gnu/h-x86_64-mingw32/bin/../lib/gcc/nios2-elf/12.3.1/../../../../../H-x86_64-mingw32/nios2-elf/lib\libc.a(libc_a-dtoa.o)
 .text._dtoa_r  0x0000c9c8     0x17e8 c:/intelfpga_lite/23.1std/nios2eds/bin/gnu/h-x86_64-mingw32/bin/../lib/gcc/nios2-elf/12.3.1/../../../../../H-x86_64-mingw32/nios2-elf/lib\libc.a(libc_a-dtoa.o)
                0x0000c9c8                _dtoa_r
 .text          0x0000e1b0        0x0 c:/intelfpga_lite/23.1std/nios2eds/bin/gnu/h-x86_64-mingw32/bin/../lib/gcc/nios2-elf/12.3.1/../../../../../H-x86_64-mingw32/nios2-elf/lib\libc.a(libc_a-mbtowc_r.o)
 .text._mbtowc_r
                0x0000e1b0        0xc c:/intelfpga_lite/23.1std/nios2eds/bin/gnu/h-x86_64-mingw32/bin/../lib/gcc/nios2-elf/12.3.1/../../../../../H-x86_64-mingw32/nios2-elf/lib\libc.a(libc_a-mbtowc_r.o)
                0x0000e1b0                _mbtowc_r
 .text.__ascii_mbtowc
                0x0000e1bc       0x44 c:/intelfpga_lite/23.1std/nios2eds/bin/gnu/h-x86_64-mingw32/bin/../lib/gcc/nios2-elf/12.3.1/../../../../../H-x86_64-mingw32/nios2-elf/lib\libc.a(libc_a-mbtowc_r.o)
                0x0000e1bc                __ascii_mbtowc
 .text          0x0000e200        0x0 c:/intelfpga_lite/23.1std/nios2eds/bin/gnu/h-x86_64-mingw32/bin/../lib/gcc/nios2-elf/12.3.1/../../../../../H-x86_64-mingw32/nios2-elf/lib\libc.a(libc_a-mprec.o)
 .text._Balloc  0x0000e200       0xa4 c:/intelfpga_lite/23.1std/nios2eds/bin/gnu/h-x86_64-mingw32/bin/../lib/gcc/nios2-elf/12.3.1/../../../../../H-x86_64-mingw32/nios2-elf/lib\libc.a(libc_a-mprec.o)
                0x0000e200                _Balloc
 .text._Bfree   0x0000e2a4       0x24 c:/intelfpga_lite/23.1std/nios2eds/bin/gnu/h-x86_64-mingw32/bin/../lib/gcc/nios2-elf/12.3.1/../../../../../H-x86_64-mingw32/nios2-elf/lib\libc.a(libc_a-mprec.o)
                0x0000e2a4                _Bfree
 .text.__multadd
                0x0000e2c8      0x130 c:/intelfpga_lite/23.1std/nios2eds/bin/gnu/h-x86_64-mingw32/bin/../lib/gcc/nios2-elf/12.3.1/../../../../../H-x86_64-mingw32/nios2-elf/lib\libc.a(libc_a-mprec.o)
                0x0000e2c8                __multadd
 .text.__s2b    0x0000e3f8      0x138 c:/intelfpga_lite/23.1std/nios2eds/bin/gnu/h-x86_64-mingw32/bin/../lib/gcc/nios2-elf/12.3.1/../../../../../H-x86_64-mingw32/nios2-elf/lib\libc.a(libc_a-mprec.o)
                0x0000e3f8                __s2b
 .text.__hi0bits
                0x0000e530       0x74 c:/intelfpga_lite/23.1std/nios2eds/bin/gnu/h-x86_64-mingw32/bin/../lib/gcc/nios2-elf/12.3.1/../../../../../H-x86_64-mingw32/nios2-elf/lib\libc.a(libc_a-mprec.o)
                0x0000e530                __hi0bits
 .text.__lo0bits
                0x0000e5a4       0xb0 c:/intelfpga_lite/23.1std/nios2eds/bin/gnu/h-x86_64-mingw32/bin/../lib/gcc/nios2-elf/12.3.1/../../../../../H-x86_64-mingw32/nios2-elf/lib\libc.a(libc_a-mprec.o)
                0x0000e5a4                __lo0bits
 .text.__i2b    0x0000e654       0xb0 c:/intelfpga_lite/23.1std/nios2eds/bin/gnu/h-x86_64-mingw32/bin/../lib/gcc/nios2-elf/12.3.1/../../../../../H-x86_64-mingw32/nios2-elf/lib\libc.a(libc_a-mprec.o)
                0x0000e654                __i2b
 .text.__multiply
                0x0000e704      0x22c c:/intelfpga_lite/23.1std/nios2eds/bin/gnu/h-x86_64-mingw32/bin/../lib/gcc/nios2-elf/12.3.1/../../../../../H-x86_64-mingw32/nios2-elf/lib\libc.a(libc_a-mprec.o)
                0x0000e704                __multiply
 .text.__pow5mult
                0x0000e930      0x140 c:/intelfpga_lite/23.1std/nios2eds/bin/gnu/h-x86_64-mingw32/bin/../lib/gcc/nios2-elf/12.3.1/../../../../../H-x86_64-mingw32/nios2-elf/lib\libc.a(libc_a-mprec.o)
                0x0000e930                __pow5mult
 .text.__lshift
                0x0000ea70      0x188 c:/intelfpga_lite/23.1std/nios2eds/bin/gnu/h-x86_64-mingw32/bin/../lib/gcc/nios2-elf/12.3.1/../../../../../H-x86_64-mingw32/nios2-elf/lib\libc.a(libc_a-mprec.o)
                0x0000ea70                __lshift
 .text.__mcmp   0x0000ebf8       0x58 c:/intelfpga_lite/23.1std/nios2eds/bin/gnu/h-x86_64-mingw32/bin/../lib/gcc/nios2-elf/12.3.1/../../../../../H-x86_64-mingw32/nios2-elf/lib\libc.a(libc_a-mprec.o)
                0x0000ebf8                __mcmp
 .text.__mdiff  0x0000ec50      0x230 c:/intelfpga_lite/23.1std/nios2eds/bin/gnu/h-x86_64-mingw32/bin/../lib/gcc/nios2-elf/12.3.1/../../../../../H-x86_64-mingw32/nios2-elf/lib\libc.a(libc_a-mprec.o)
                0x0000ec50                __mdiff
 .text.__ulp    0x0000ee80       0x60 c:/intelfpga_lite/23.1std/nios2eds/bin/gnu/h-x86_64-mingw32/bin/../lib/gcc/nios2-elf/12.3.1/../../../../../H-x86_64-mingw32/nios2-elf/lib\libc.a(libc_a-mprec.o)
                0x0000ee80                __ulp
 .text.__b2d    0x0000eee0      0x100 c:/intelfpga_lite/23.1std/nios2eds/bin/gnu/h-x86_64-mingw32/bin/../lib/gcc/nios2-elf/12.3.1/../../../../../H-x86_64-mingw32/nios2-elf/lib\libc.a(libc_a-mprec.o)
                0x0000eee0                __b2d
 .text.__d2b    0x0000efe0      0x158 c:/intelfpga_lite/23.1std/nios2eds/bin/gnu/h-x86_64-mingw32/bin/../lib/gcc/nios2-elf/12.3.1/../../../../../H-x86_64-mingw32/nios2-elf/lib\libc.a(libc_a-mprec.o)
                0x0000efe0                __d2b
 .text.__ratio  0x0000f138       0xa8 c:/intelfpga_lite/23.1std/nios2eds/bin/gnu/h-x86_64-mingw32/bin/../lib/gcc/nios2-elf/12.3.1/../../../../../H-x86_64-mingw32/nios2-elf/lib\libc.a(libc_a-mprec.o)
                0x0000f138                __ratio
 .text._mprec_log10
                0x0000f1e0       0x70 c:/intelfpga_lite/23.1std/nios2eds/bin/gnu/h-x86_64-mingw32/bin/../lib/gcc/nios2-elf/12.3.1/../../../../../H-x86_64-mingw32/nios2-elf/lib\libc.a(libc_a-mprec.o)
                0x0000f1e0                _mprec_log10
 .text.__copybits
                0x0000f250       0x6c c:/intelfpga_lite/23.1std/nios2eds/bin/gnu/h-x86_64-mingw32/bin/../lib/gcc/nios2-elf/12.3.1/../../../../../H-x86_64-mingw32/nios2-elf/lib\libc.a(libc_a-mprec.o)
                0x0000f250                __copybits
 .text.__any_on
                0x0000f2bc       0x60 c:/intelfpga_lite/23.1std/nios2eds/bin/gnu/h-x86_64-mingw32/bin/../lib/gcc/nios2-elf/12.3.1/../../../../../H-x86_64-mingw32/nios2-elf/lib\libc.a(libc_a-mprec.o)
                0x0000f2bc                __any_on
 .text          0x0000f31c        0x0 c:/intelfpga_lite/23.1std/nios2eds/bin/gnu/h-x86_64-mingw32/bin/../lib/gcc/nios2-elf/12.3.1/../../../../../H-x86_64-mingw32/nios2-elf/lib\libc.a(libc_a-reallocr.o)
 .text._realloc_r
                0x0000f31c      0x5ec c:/intelfpga_lite/23.1std/nios2eds/bin/gnu/h-x86_64-mingw32/bin/../lib/gcc/nios2-elf/12.3.1/../../../../../H-x86_64-mingw32/nios2-elf/lib\libc.a(libc_a-reallocr.o)
                0x0000f31c                _realloc_r
 .text          0x0000f908        0x0 c:/intelfpga_lite/23.1std/nios2eds/bin/gnu/h-x86_64-mingw32/bin/../lib/gcc/nios2-elf/12.3.1/../../../../../H-x86_64-mingw32/nios2-elf/lib\libc.a(libc_a-wctomb_r.o)
 .text._wctomb_r
                0x0000f908        0xc c:/intelfpga_lite/23.1std/nios2eds/bin/gnu/h-x86_64-mingw32/bin/../lib/gcc/nios2-elf/12.3.1/../../../../../H-x86_64-mingw32/nios2-elf/lib\libc.a(libc_a-wctomb_r.o)
                0x0000f908                _wctomb_r
 .text.__ascii_wctomb
                0x0000f914       0x30 c:/intelfpga_lite/23.1std/nios2eds/bin/gnu/h-x86_64-mingw32/bin/../lib/gcc/nios2-elf/12.3.1/../../../../../H-x86_64-mingw32/nios2-elf/lib\libc.a(libc_a-wctomb_r.o)
                0x0000f914                __ascii_wctomb
 .text          0x0000f944        0x0 c:/intelfpga_lite/23.1std/nios2eds/bin/gnu/h-x86_64-mingw32/bin/../lib/gcc/nios2-elf/12.3.1/../../../../../H-x86_64-mingw32/nios2-elf/lib\libc.a(libc_a-wcrtomb.o)
 .text._wcrtomb_r
                0x0000f944       0x6c c:/intelfpga_lite/23.1std/nios2eds/bin/gnu/h-x86_64-mingw32/bin/../lib/gcc/nios2-elf/12.3.1/../../../../../H-x86_64-mingw32/nios2-elf/lib\libc.a(libc_a-wcrtomb.o)
                0x0000f944                _wcrtomb_r
 .text.wcrtomb  0x0000f9b0       0x88 c:/intelfpga_lite/23.1std/nios2eds/bin/gnu/h-x86_64-mingw32/bin/../lib/gcc/nios2-elf/12.3.1/../../../../../H-x86_64-mingw32/nios2-elf/lib\libc.a(libc_a-wcrtomb.o)
                0x0000f9b0                wcrtomb
 .text          0x0000fa38        0x0 c:/intelfpga_lite/23.1std/nios2eds/bin/gnu/h-x86_64-mingw32/bin/../lib/gcc/nios2-elf/12.3.1/../../../../../H-x86_64-mingw32/nios2-elf/lib\libc.a(libc_a-ctype_.o)
 .text          0x0000fa38        0x0 c:/intelfpga_lite/23.1std/nios2eds/bin/gnu/h-x86_64-mingw32/bin/../lib/gcc/nios2-elf/12.3.1/../../../../../H-x86_64-mingw32/nios2-elf/lib\libc.a(libc_a-strcmp.o)
 .text.strcmp   0x0000fa38       0xb8 c:/intelfpga_lite/23.1std/nios2eds/bin/gnu/h-x86_64-mingw32/bin/../lib/gcc/nios2-elf/12.3.1/../../../../../H-x86_64-mingw32/nios2-elf/lib\libc.a(libc_a-strcmp.o)
                0x0000fa38                strcmp
 .text          0x0000faf0        0x0 c:/intelfpga_lite/23.1std/nios2eds/bin/gnu/h-x86_64-mingw32/bin/../lib/gcc/nios2-elf/12.3.1/../../../../../H-x86_64-mingw32/nios2-elf/lib\libc.a(libc_a-assert.o)
 .text.__assert_func
                0x0000faf0       0x64 c:/intelfpga_lite/23.1std/nios2eds/bin/gnu/h-x86_64-mingw32/bin/../lib/gcc/nios2-elf/12.3.1/../../../../../H-x86_64-mingw32/nios2-elf/lib\libc.a(libc_a-assert.o)
                0x0000faf0                __assert_func
 .text.__assert
                0x0000fb54       0x14 c:/intelfpga_lite/23.1std/nios2eds/bin/gnu/h-x86_64-mingw32/bin/../lib/gcc/nios2-elf/12.3.1/../../../../../H-x86_64-mingw32/nios2-elf/lib\libc.a(libc_a-assert.o)
                0x0000fb54                __assert
 .text          0x0000fb68        0x0 c:/intelfpga_lite/23.1std/nios2eds/bin/gnu/h-x86_64-mingw32/bin/../lib/gcc/nios2-elf/12.3.1/../../../../../H-x86_64-mingw32/nios2-elf/lib\libc.a(libc_a-callocr.o)
 .text._calloc_r
                0x0000fb68      0x134 c:/intelfpga_lite/23.1std/nios2eds/bin/gnu/h-x86_64-mingw32/bin/../lib/gcc/nios2-elf/12.3.1/../../../../../H-x86_64-mingw32/nios2-elf/lib\libc.a(libc_a-callocr.o)
                0x0000fb68                _calloc_r
 .text          0x0000fc9c        0x0 c:/intelfpga_lite/23.1std/nios2eds/bin/gnu/h-x86_64-mingw32/bin/../lib/gcc/nios2-elf/12.3.1/../../../../../H-x86_64-mingw32/nios2-elf/lib\libc.a(libc_a-fiprintf.o)
 .text._fiprintf_r
                0x0000fc9c       0x20 c:/intelfpga_lite/23.1std/nios2eds/bin/gnu/h-x86_64-mingw32/bin/../lib/gcc/nios2-elf/12.3.1/../../../../../H-x86_64-mingw32/nios2-elf/lib\libc.a(libc_a-fiprintf.o)
                0x0000fc9c                _fiprintf_r
 .text.fiprintf
                0x0000fcbc       0x38 c:/intelfpga_lite/23.1std/nios2eds/bin/gnu/h-x86_64-mingw32/bin/../lib/gcc/nios2-elf/12.3.1/../../../../../H-x86_64-mingw32/nios2-elf/lib\libc.a(libc_a-fiprintf.o)
                0x0000fcbc                fiprintf
 .text          0x0000fcf4        0x0 c:/intelfpga_lite/23.1std/nios2eds/bin/gnu/h-x86_64-mingw32/bin/../lib/gcc/nios2-elf/12.3.1/../../../../../H-x86_64-mingw32/nios2-elf/lib\libc.a(libc_a-vfiprintfr_1.o)
 .text._vfiprintf_r
                0x0000fcf4        0x4 c:/intelfpga_lite/23.1std/nios2eds/bin/gnu/h-x86_64-mingw32/bin/../lib/gcc/nios2-elf/12.3.1/../../../../../H-x86_64-mingw32/nios2-elf/lib\libc.a(libc_a-vfiprintfr_1.o)
                0x0000fcf4                _vfiprintf_r
 .text          0x0000fcf8        0x0 c:/intelfpga_lite/23.1std/nios2eds/bin/gnu/h-x86_64-mingw32/bin/../lib/gcc/nios2-elf/12.3.1/../../../../../H-x86_64-mingw32/nios2-elf/lib\libc.a(libc_a-abort.o)
 .text.abort    0x0000fcf8       0x18 c:/intelfpga_lite/23.1std/nios2eds/bin/gnu/h-x86_64-mingw32/bin/../lib/gcc/nios2-elf/12.3.1/../../../../../H-x86_64-mingw32/nios2-elf/lib\libc.a(libc_a-abort.o)
                0x0000fcf8                abort
 .text          0x0000fd10        0x0 c:/intelfpga_lite/23.1std/nios2eds/bin/gnu/h-x86_64-mingw32/bin/../lib/gcc/nios2-elf/12.3.1/../../../../../H-x86_64-mingw32/nios2-elf/lib\libc.a(libc_a-signal.o)
 .text._init_signal_r
                0x0000fd10       0x5c c:/intelfpga_lite/23.1std/nios2eds/bin/gnu/h-x86_64-mingw32/bin/../lib/gcc/nios2-elf/12.3.1/../../../../../H-x86_64-mingw32/nios2-elf/lib\libc.a(libc_a-signal.o)
                0x0000fd10                _init_signal_r
 .text._signal_r
                0x0000fd6c       0x8c c:/intelfpga_lite/23.1std/nios2eds/bin/gnu/h-x86_64-mingw32/bin/../lib/gcc/nios2-elf/12.3.1/../../../../../H-x86_64-mingw32/nios2-elf/lib\libc.a(libc_a-signal.o)
                0x0000fd6c                _signal_r
 .text._raise_r
                0x0000fdf8       0xb0 c:/intelfpga_lite/23.1std/nios2eds/bin/gnu/h-x86_64-mingw32/bin/../lib/gcc/nios2-elf/12.3.1/../../../../../H-x86_64-mingw32/nios2-elf/lib\libc.a(libc_a-signal.o)
                0x0000fdf8                _raise_r
 .text.__sigtramp_r
                0x0000fea8       0xbc c:/intelfpga_lite/23.1std/nios2eds/bin/gnu/h-x86_64-mingw32/bin/../lib/gcc/nios2-elf/12.3.1/../../../../../H-x86_64-mingw32/nios2-elf/lib\libc.a(libc_a-signal.o)
                0x0000fea8                __sigtramp_r
 .text.raise    0x0000ff64       0xb4 c:/intelfpga_lite/23.1std/nios2eds/bin/gnu/h-x86_64-mingw32/bin/../lib/gcc/nios2-elf/12.3.1/../../../../../H-x86_64-mingw32/nios2-elf/lib\libc.a(libc_a-signal.o)
                0x0000ff64                raise
 .text.signal   0x00010018       0x98 c:/intelfpga_lite/23.1std/nios2eds/bin/gnu/h-x86_64-mingw32/bin/../lib/gcc/nios2-elf/12.3.1/../../../../../H-x86_64-mingw32/nios2-elf/lib\libc.a(libc_a-signal.o)
                0x00010018                signal
 .text._init_signal
                0x000100b0       0x60 c:/intelfpga_lite/23.1std/nios2eds/bin/gnu/h-x86_64-mingw32/bin/../lib/gcc/nios2-elf/12.3.1/../../../../../H-x86_64-mingw32/nios2-elf/lib\libc.a(libc_a-signal.o)
                0x000100b0                _init_signal
 .text.__sigtramp
                0x00010110       0xbc c:/intelfpga_lite/23.1std/nios2eds/bin/gnu/h-x86_64-mingw32/bin/../lib/gcc/nios2-elf/12.3.1/../../../../../H-x86_64-mingw32/nios2-elf/lib\libc.a(libc_a-signal.o)
                0x00010110                __sigtramp
 .text          0x000101cc        0x0 c:/intelfpga_lite/23.1std/nios2eds/bin/gnu/h-x86_64-mingw32/bin/../lib/gcc/nios2-elf/12.3.1/../../../../../H-x86_64-mingw32/nios2-elf/lib\libc.a(libc_a-signalr.o)
 .text._kill_r  0x000101cc       0x60 c:/intelfpga_lite/23.1std/nios2eds/bin/gnu/h-x86_64-mingw32/bin/../lib/gcc/nios2-elf/12.3.1/../../../../../H-x86_64-mingw32/nios2-elf/lib\libc.a(libc_a-signalr.o)
                0x000101cc                _kill_r
 .text._getpid_r
                0x0001022c        0x4 c:/intelfpga_lite/23.1std/nios2eds/bin/gnu/h-x86_64-mingw32/bin/../lib/gcc/nios2-elf/12.3.1/../../../../../H-x86_64-mingw32/nios2-elf/lib\libc.a(libc_a-signalr.o)
                0x0001022c                _getpid_r
 .text          0x00010230      0x550 c:/intelfpga_lite/23.1std/nios2eds/bin/gnu/h-x86_64-mingw32/bin/../lib/gcc/nios2-elf/12.3.1\libgcc.a(_udivdi3.o)
                0x00010230                __udivdi3
 .text          0x00010780      0x510 c:/intelfpga_lite/23.1std/nios2eds/bin/gnu/h-x86_64-mingw32/bin/../lib/gcc/nios2-elf/12.3.1\libgcc.a(_umoddi3.o)
                0x00010780                __umoddi3
 .text          0x00010c90       0x90 c:/intelfpga_lite/23.1std/nios2eds/bin/gnu/h-x86_64-mingw32/bin/../lib/gcc/nios2-elf/12.3.1\libgcc.a(floatunsidf.o)
                0x00010c90                __floatunsidf
 .text          0x00010d20        0x0 c:/Users/pedro/OneDrive/Documentos/CNN-paralel/Software/c0_bsp/\libhal_bsp.a(alt_close.o)
 .text.close    0x00010d20       0xb0 c:/Users/pedro/OneDrive/Documentos/CNN-paralel/Software/c0_bsp/\libhal_bsp.a(alt_close.o)
                0x00010d20                close
 .text          0x00010dd0        0x0 c:/Users/pedro/OneDrive/Documentos/CNN-paralel/Software/c0_bsp/\libhal_bsp.a(alt_dev.o)
 .text.alt_dev_null_write
                0x00010dd0        0x8 c:/Users/pedro/OneDrive/Documentos/CNN-paralel/Software/c0_bsp/\libhal_bsp.a(alt_dev.o)
 .text          0x00010dd8        0x0 c:/Users/pedro/OneDrive/Documentos/CNN-paralel/Software/c0_bsp/\libhal_bsp.a(alt_errno.o)
 .text          0x00010dd8        0x0 c:/Users/pedro/OneDrive/Documentos/CNN-paralel/Software/c0_bsp/\libhal_bsp.a(alt_fstat.o)
 .text.fstat    0x00010dd8       0x78 c:/Users/pedro/OneDrive/Documentos/CNN-paralel/Software/c0_bsp/\libhal_bsp.a(alt_fstat.o)
                0x00010dd8                fstat
 .text          0x00010e50        0x0 c:/Users/pedro/OneDrive/Documentos/CNN-paralel/Software/c0_bsp/\libhal_bsp.a(alt_getpid.o)
 .text.getpid   0x00010e50       0x20 c:/Users/pedro/OneDrive/Documentos/CNN-paralel/Software/c0_bsp/\libhal_bsp.a(alt_getpid.o)
                0x00010e50                getpid
 .text          0x00010e70        0x0 c:/Users/pedro/OneDrive/Documentos/CNN-paralel/Software/c0_bsp/\libhal_bsp.a(alt_isatty.o)
 .text.isatty   0x00010e70       0x74 c:/Users/pedro/OneDrive/Documentos/CNN-paralel/Software/c0_bsp/\libhal_bsp.a(alt_isatty.o)
                0x00010e70                isatty
 .text          0x00010ee4        0x0 c:/Users/pedro/OneDrive/Documentos/CNN-paralel/Software/c0_bsp/\libhal_bsp.a(alt_kill.o)
 .text.alt_get_errno
                0x00010ee4       0x3c c:/Users/pedro/OneDrive/Documentos/CNN-paralel/Software/c0_bsp/\libhal_bsp.a(alt_kill.o)
 .text.kill     0x00010f20       0xf0 c:/Users/pedro/OneDrive/Documentos/CNN-paralel/Software/c0_bsp/\libhal_bsp.a(alt_kill.o)
                0x00010f20                kill
 .text          0x00011010        0x0 c:/Users/pedro/OneDrive/Documentos/CNN-paralel/Software/c0_bsp/\libhal_bsp.a(alt_load.o)
 .text.alt_load_section
                0x00011010       0x68 c:/Users/pedro/OneDrive/Documentos/CNN-paralel/Software/c0_bsp/\libhal_bsp.a(alt_load.o)
 .text.alt_load
                0x00011078       0x84 c:/Users/pedro/OneDrive/Documentos/CNN-paralel/Software/c0_bsp/\libhal_bsp.a(alt_load.o)
                0x00011078                alt_load
 .text          0x000110fc        0x0 c:/Users/pedro/OneDrive/Documentos/CNN-paralel/Software/c0_bsp/\libhal_bsp.a(alt_lseek.o)
 .text.lseek    0x000110fc       0x80 c:/Users/pedro/OneDrive/Documentos/CNN-paralel/Software/c0_bsp/\libhal_bsp.a(alt_lseek.o)
                0x000110fc                lseek
 .text          0x0001117c        0x0 c:/Users/pedro/OneDrive/Documentos/CNN-paralel/Software/c0_bsp/\libhal_bsp.a(alt_main.o)
 .text.alt_main
                0x0001117c       0x40 c:/Users/pedro/OneDrive/Documentos/CNN-paralel/Software/c0_bsp/\libhal_bsp.a(alt_main.o)
                0x0001117c                alt_main
 .text          0x000111bc        0x0 c:/Users/pedro/OneDrive/Documentos/CNN-paralel/Software/c0_bsp/\libhal_bsp.a(alt_malloc_lock.o)
 .text.__malloc_lock
                0x000111bc       0x24 c:/Users/pedro/OneDrive/Documentos/CNN-paralel/Software/c0_bsp/\libhal_bsp.a(alt_malloc_lock.o)
                0x000111bc                __malloc_lock
 .text.__malloc_unlock
                0x000111e0       0x24 c:/Users/pedro/OneDrive/Documentos/CNN-paralel/Software/c0_bsp/\libhal_bsp.a(alt_malloc_lock.o)
                0x000111e0                __malloc_unlock
 .text          0x00011204        0x0 c:/Users/pedro/OneDrive/Documentos/CNN-paralel/Software/c0_bsp/\libhal_bsp.a(alt_open.o)
 .text.open     0x00011204      0x154 c:/Users/pedro/OneDrive/Documentos/CNN-paralel/Software/c0_bsp/\libhal_bsp.a(alt_open.o)
                0x00011204                open
 .text          0x00011358        0x0 c:/Users/pedro/OneDrive/Documentos/CNN-paralel/Software/c0_bsp/\libhal_bsp.a(alt_read.o)
 .text.alt_get_errno
                0x00011358       0x14 c:/Users/pedro/OneDrive/Documentos/CNN-paralel/Software/c0_bsp/\libhal_bsp.a(alt_read.o)
 .text.read     0x0001136c       0x8c c:/Users/pedro/OneDrive/Documentos/CNN-paralel/Software/c0_bsp/\libhal_bsp.a(alt_read.o)
                0x0001136c                read
 .text          0x000113f8        0x0 c:/Users/pedro/OneDrive/Documentos/CNN-paralel/Software/c0_bsp/\libhal_bsp.a(alt_release_fd.o)
 .text.alt_release_fd
                0x000113f8       0x24 c:/Users/pedro/OneDrive/Documentos/CNN-paralel/Software/c0_bsp/\libhal_bsp.a(alt_release_fd.o)
                0x000113f8                alt_release_fd
 .text          0x0001141c        0x0 c:/Users/pedro/OneDrive/Documentos/CNN-paralel/Software/c0_bsp/\libhal_bsp.a(alt_sbrk.o)
 .text.sbrk     0x0001141c       0x4c c:/Users/pedro/OneDrive/Documentos/CNN-paralel/Software/c0_bsp/\libhal_bsp.a(alt_sbrk.o)
                0x0001141c                sbrk
 .text          0x00011468        0x0 c:/Users/pedro/OneDrive/Documentos/CNN-paralel/Software/c0_bsp/\libhal_bsp.a(alt_write.o)
 .text.alt_get_errno
                0x00011468       0x14 c:/Users/pedro/OneDrive/Documentos/CNN-paralel/Software/c0_bsp/\libhal_bsp.a(alt_write.o)
 .text.write    0x0001147c       0x88 c:/Users/pedro/OneDrive/Documentos/CNN-paralel/Software/c0_bsp/\libhal_bsp.a(alt_write.o)
                0x0001147c                write
 .text          0x00011504        0x0 c:/Users/pedro/OneDrive/Documentos/CNN-paralel/Software/c0_bsp/\libhal_bsp.a(alt_sys_init.o)
 .text.alt_irq_init
                0x00011504       0x20 c:/Users/pedro/OneDrive/Documentos/CNN-paralel/Software/c0_bsp/\libhal_bsp.a(alt_sys_init.o)
                0x00011504                alt_irq_init
 .text.alt_sys_init
                0x00011524       0x2c c:/Users/pedro/OneDrive/Documentos/CNN-paralel/Software/c0_bsp/\libhal_bsp.a(alt_sys_init.o)
                0x00011524                alt_sys_init
 .text          0x00011550        0x0 c:/Users/pedro/OneDrive/Documentos/CNN-paralel/Software/c0_bsp/\libhal_bsp.a(altera_avalon_jtag_uart_fd.o)
 .text.altera_avalon_jtag_uart_read_fd
                0x00011550       0x10 c:/Users/pedro/OneDrive/Documentos/CNN-paralel/Software/c0_bsp/\libhal_bsp.a(altera_avalon_jtag_uart_fd.o)
                0x00011550                altera_avalon_jtag_uart_read_fd
 .text.altera_avalon_jtag_uart_write_fd
                0x00011560       0x10 c:/Users/pedro/OneDrive/Documentos/CNN-paralel/Software/c0_bsp/\libhal_bsp.a(altera_avalon_jtag_uart_fd.o)
                0x00011560                altera_avalon_jtag_uart_write_fd
 .text          0x00011570        0x0 c:/Users/pedro/OneDrive/Documentos/CNN-paralel/Software/c0_bsp/\libhal_bsp.a(altera_avalon_jtag_uart_read.o)
 .text.altera_avalon_jtag_uart_read
                0x00011570       0x5c c:/Users/pedro/OneDrive/Documentos/CNN-paralel/Software/c0_bsp/\libhal_bsp.a(altera_avalon_jtag_uart_read.o)
                0x00011570                altera_avalon_jtag_uart_read
 .text          0x000115cc        0x0 c:/Users/pedro/OneDrive/Documentos/CNN-paralel/Software/c0_bsp/\libhal_bsp.a(altera_avalon_jtag_uart_write.o)
 .text.altera_avalon_jtag_uart_write
                0x000115cc       0x30 c:/Users/pedro/OneDrive/Documentos/CNN-paralel/Software/c0_bsp/\libhal_bsp.a(altera_avalon_jtag_uart_write.o)
                0x000115cc                altera_avalon_jtag_uart_write
 .text          0x000115fc        0x0 c:/Users/pedro/OneDrive/Documentos/CNN-paralel/Software/c0_bsp/\libhal_bsp.a(altera_hostfs.o)
 .text.alt_hostfs_open
                0x000115fc       0x68 c:/Users/pedro/OneDrive/Documentos/CNN-paralel/Software/c0_bsp/\libhal_bsp.a(altera_hostfs.o)
                0x000115fc                alt_hostfs_open
 .text.alt_hostfs_close
                0x00011664       0x18 c:/Users/pedro/OneDrive/Documentos/CNN-paralel/Software/c0_bsp/\libhal_bsp.a(altera_hostfs.o)
                0x00011664                alt_hostfs_close
 .text.alt_hostfs_read
                0x0001167c       0x1c c:/Users/pedro/OneDrive/Documentos/CNN-paralel/Software/c0_bsp/\libhal_bsp.a(altera_hostfs.o)
                0x0001167c                alt_hostfs_read
 .text.alt_hostfs_write
                0x00011698       0x1c c:/Users/pedro/OneDrive/Documentos/CNN-paralel/Software/c0_bsp/\libhal_bsp.a(altera_hostfs.o)
                0x00011698                alt_hostfs_write
 .text.alt_hostfs_seek
                0x000116b4       0x1c c:/Users/pedro/OneDrive/Documentos/CNN-paralel/Software/c0_bsp/\libhal_bsp.a(altera_hostfs.o)
                0x000116b4                alt_hostfs_seek
 .text.alt_hostfs_fstat
                0x000116d0      0x104 c:/Users/pedro/OneDrive/Documentos/CNN-paralel/Software/c0_bsp/\libhal_bsp.a(altera_hostfs.o)
                0x000116d0                alt_hostfs_fstat
 .text          0x000117d4        0x0 c:/Users/pedro/OneDrive/Documentos/CNN-paralel/Software/c0_bsp/\libhal_bsp.a(alt_dcache_flush_all.o)
 .text.alt_dcache_flush_all
                0x000117d4        0x4 c:/Users/pedro/OneDrive/Documentos/CNN-paralel/Software/c0_bsp/\libhal_bsp.a(alt_dcache_flush_all.o)
                0x000117d4                alt_dcache_flush_all
 .text          0x000117d8        0x0 c:/Users/pedro/OneDrive/Documentos/CNN-paralel/Software/c0_bsp/\libhal_bsp.a(alt_dev_llist_insert.o)
 .text.alt_get_errno
                0x000117d8       0x3c c:/Users/pedro/OneDrive/Documentos/CNN-paralel/Software/c0_bsp/\libhal_bsp.a(alt_dev_llist_insert.o)
 .text.alt_dev_llist_insert
                0x00011814       0xa8 c:/Users/pedro/OneDrive/Documentos/CNN-paralel/Software/c0_bsp/\libhal_bsp.a(alt_dev_llist_insert.o)
                0x00011814                alt_dev_llist_insert
 .text          0x000118bc        0x0 c:/Users/pedro/OneDrive/Documentos/CNN-paralel/Software/c0_bsp/\libhal_bsp.a(alt_find_dev.o)
 .text.alt_find_dev
                0x000118bc       0x70 c:/Users/pedro/OneDrive/Documentos/CNN-paralel/Software/c0_bsp/\libhal_bsp.a(alt_find_dev.o)
                0x000118bc                alt_find_dev
 .text          0x0001192c        0x0 c:/Users/pedro/OneDrive/Documentos/CNN-paralel/Software/c0_bsp/\libhal_bsp.a(alt_find_file.o)
 .text.alt_find_file
                0x0001192c       0x9c c:/Users/pedro/OneDrive/Documentos/CNN-paralel/Software/c0_bsp/\libhal_bsp.a(alt_find_file.o)
                0x0001192c                alt_find_file
 .text          0x000119c8        0x0 c:/Users/pedro/OneDrive/Documentos/CNN-paralel/Software/c0_bsp/\libhal_bsp.a(alt_fs_reg.o)
 .text.alt_fs_reg
                0x000119c8       0x30 c:/Users/pedro/OneDrive/Documentos/CNN-paralel/Software/c0_bsp/\libhal_bsp.a(alt_fs_reg.o)
                0x000119c8                alt_fs_reg
 .text          0x000119f8        0x0 c:/Users/pedro/OneDrive/Documentos/CNN-paralel/Software/c0_bsp/\libhal_bsp.a(alt_get_fd.o)
 .text.alt_get_fd
                0x000119f8       0x4c c:/Users/pedro/OneDrive/Documentos/CNN-paralel/Software/c0_bsp/\libhal_bsp.a(alt_get_fd.o)
                0x000119f8                alt_get_fd
 .text          0x00011a44        0x0 c:/Users/pedro/OneDrive/Documentos/CNN-paralel/Software/c0_bsp/\libhal_bsp.a(alt_icache_flush_all.o)
 .text.alt_icache_flush_all
                0x00011a44        0x4 c:/Users/pedro/OneDrive/Documentos/CNN-paralel/Software/c0_bsp/\libhal_bsp.a(alt_icache_flush_all.o)
                0x00011a44                alt_icache_flush_all
 .text          0x00011a48        0x0 c:/Users/pedro/OneDrive/Documentos/CNN-paralel/Software/c0_bsp/\libhal_bsp.a(alt_io_redirect.o)
 .text.alt_open_fd.constprop.0
                0x00011a48       0x70 c:/Users/pedro/OneDrive/Documentos/CNN-paralel/Software/c0_bsp/\libhal_bsp.a(alt_io_redirect.o)
 .text.alt_io_redirect
                0x00011ab8       0x64 c:/Users/pedro/OneDrive/Documentos/CNN-paralel/Software/c0_bsp/\libhal_bsp.a(alt_io_redirect.o)
                0x00011ab8                alt_io_redirect
 .text          0x00011b1c        0x0 c:/Users/pedro/OneDrive/Documentos/CNN-paralel/Software/c0_bsp/\libhal_bsp.a(altera_nios2_gen2_irq.o)
 .text.altera_nios2_gen2_irq_init
                0x00011b1c        0x8 c:/Users/pedro/OneDrive/Documentos/CNN-paralel/Software/c0_bsp/\libhal_bsp.a(altera_nios2_gen2_irq.o)
                0x00011b1c                altera_nios2_gen2_irq_init
 .text          0x00011b24        0x0 c:/intelfpga_lite/23.1std/nios2eds/bin/gnu/h-x86_64-mingw32/bin/../lib/gcc/nios2-elf/12.3.1/../../../../../H-x86_64-mingw32/nios2-elf/lib\libc.a(libc_a-memcmp.o)
 .text.memcmp   0x00011b24       0x78 c:/intelfpga_lite/23.1std/nios2eds/bin/gnu/h-x86_64-mingw32/bin/../lib/gcc/nios2-elf/12.3.1/../../../../../H-x86_64-mingw32/nios2-elf/lib\libc.a(libc_a-memcmp.o)
                0x00011b24                memcmp
 *(.gnu.warning.*)
 *(.fini)
                [!provide]                        PROVIDE (__etext = ABSOLUTE (.))
                [!provide]                        PROVIDE (_etext = ABSOLUTE (.))
                [!provide]                        PROVIDE (etext = ABSOLUTE (.))
 *(.eh_frame_hdr)
                0x00011b9c                        . = ALIGN (0x4)
                [!provide]                        PROVIDE (__preinit_array_start = ABSOLUTE (.))
 *(.preinit_array)
                [!provide]                        PROVIDE (__preinit_array_end = ABSOLUTE (.))
                [!provide]                        PROVIDE (__init_array_start = ABSOLUTE (.))
 *(SORT_BY_INIT_PRIORITY(.init_array.*))
 *(.init_array)
                [!provide]                        PROVIDE (__init_array_end = ABSOLUTE (.))
                [!provide]                        PROVIDE (__fini_array_start = ABSOLUTE (.))
 *(.fini_array)
                [!provide]                        PROVIDE (__fini_array_end = ABSOLUTE (.))
 *(.eh_frame)
 *(.gcc_except_table .gcc_except_table.*)
 *(.dynamic)
                [!provide]                        PROVIDE (__CTOR_LIST__ = ABSOLUTE (.))
 *(.ctors)
 *(SORT_BY_NAME(.ctors.*))
                [!provide]                        PROVIDE (__CTOR_END__ = ABSOLUTE (.))
                [!provide]                        PROVIDE (__DTOR_LIST__ = ABSOLUTE (.))
 *(.dtors)
 *(SORT_BY_NAME(.dtors.*))
                [!provide]                        PROVIDE (__DTOR_END__ = ABSOLUTE (.))
 *(.jcr)
                0x00011b9c                        . = ALIGN (0x4)

.rodata         0x00100000      0x868 load address 0x00011b9c
                0x00100000                        PROVIDE (__ram_rodata_start = ABSOLUTE (.))
                0x00100000                        . = ALIGN (0x4)
 *(.rodata .rodata.* .gnu.linkonce.r.*)
 .rodata.str1.4
                0x00100000       0x1c obj/default/image.o
 .rodata.str1.4
                0x0010001c      0x199 obj/default/main.o
                                0x19d (size before relaxing)
 *fill*         0x001001b5        0x3 
 .rodata.ln2LO  0x001001b8       0x10 c:/intelfpga_lite/23.1std/nios2eds/bin/gnu/h-x86_64-mingw32/bin/../lib/gcc/nios2-elf/12.3.1/../../../../../H-x86_64-mingw32/nios2-elf/lib\libm.a(libm_a-e_exp.o)
 .rodata.ln2HI  0x001001c8       0x10 c:/intelfpga_lite/23.1std/nios2eds/bin/gnu/h-x86_64-mingw32/bin/../lib/gcc/nios2-elf/12.3.1/../../../../../H-x86_64-mingw32/nios2-elf/lib\libm.a(libm_a-e_exp.o)
 .rodata.halF   0x001001d8       0x10 c:/intelfpga_lite/23.1std/nios2eds/bin/gnu/h-x86_64-mingw32/bin/../lib/gcc/nios2-elf/12.3.1/../../../../../H-x86_64-mingw32/nios2-elf/lib\libm.a(libm_a-e_exp.o)
 .rodata        0x001001e8      0x100 c:/intelfpga_lite/23.1std/nios2eds/bin/gnu/h-x86_64-mingw32/bin/../lib/gcc/nios2-elf/12.3.1\libgcc.a(_clz.o)
                0x001001e8                __clz_tab
 .rodata._puts_r.str1.4
                0x001002e8      0x199 c:/intelfpga_lite/23.1std/nios2eds/bin/gnu/h-x86_64-mingw32/bin/../lib/gcc/nios2-elf/12.3.1/../../../../../H-x86_64-mingw32/nios2-elf/lib\libc.a(libc_a-puts.o)
                                  0x2 (size before relaxing)
 .rodata.___vfprintf_internal_r.str1.4
                0x001002e8       0x42 c:/intelfpga_lite/23.1std/nios2eds/bin/gnu/h-x86_64-mingw32/bin/../lib/gcc/nios2-elf/12.3.1/../../../../../H-x86_64-mingw32/nios2-elf/lib\libc.a(libc_a-vfprintf.o)
 *fill*         0x0010032a        0x2 
 .rodata.zeroes.0
                0x0010032c       0x10 c:/intelfpga_lite/23.1std/nios2eds/bin/gnu/h-x86_64-mingw32/bin/../lib/gcc/nios2-elf/12.3.1/../../../../../H-x86_64-mingw32/nios2-elf/lib\libc.a(libc_a-vfprintf.o)
 .rodata.blanks.1
                0x0010033c       0x10 c:/intelfpga_lite/23.1std/nios2eds/bin/gnu/h-x86_64-mingw32/bin/../lib/gcc/nios2-elf/12.3.1/../../../../../H-x86_64-mingw32/nios2-elf/lib\libc.a(libc_a-vfprintf.o)
 .rodata.___vfiprintf_internal_r.str1.4
                0x0010034c       0x2f c:/intelfpga_lite/23.1std/nios2eds/bin/gnu/h-x86_64-mingw32/bin/../lib/gcc/nios2-elf/12.3.1/../../../../../H-x86_64-mingw32/nios2-elf/lib\libc.a(libc_a-vfiprintf.o)
 .rodata.zeroes.0
                0x0010034c       0x10 c:/intelfpga_lite/23.1std/nios2eds/bin/gnu/h-x86_64-mingw32/bin/../lib/gcc/nios2-elf/12.3.1/../../../../../H-x86_64-mingw32/nios2-elf/lib\libc.a(libc_a-vfiprintf.o)
 .rodata.blanks.1
                0x0010035c       0x10 c:/intelfpga_lite/23.1std/nios2eds/bin/gnu/h-x86_64-mingw32/bin/../lib/gcc/nios2-elf/12.3.1/../../../../../H-x86_64-mingw32/nios2-elf/lib\libc.a(libc_a-vfiprintf.o)
 .rodata._setlocale_r.str1.4
                0x0010036c        0xa c:/intelfpga_lite/23.1std/nios2eds/bin/gnu/h-x86_64-mingw32/bin/../lib/gcc/nios2-elf/12.3.1/../../../../../H-x86_64-mingw32/nios2-elf/lib\libc.a(libc_a-locale.o)
                                  0xd (size before relaxing)
 *fill*         0x00100376        0x2 
 .rodata.str1.4
                0x00100378        0x2 c:/intelfpga_lite/23.1std/nios2eds/bin/gnu/h-x86_64-mingw32/bin/../lib/gcc/nios2-elf/12.3.1/../../../../../H-x86_64-mingw32/nios2-elf/lib\libc.a(libc_a-locale.o)
 *fill*         0x0010037a        0x2 
 .rodata._dtoa_r.str1.4
                0x0010037c       0x58 c:/intelfpga_lite/23.1std/nios2eds/bin/gnu/h-x86_64-mingw32/bin/../lib/gcc/nios2-elf/12.3.1/../../../../../H-x86_64-mingw32/nios2-elf/lib\libc.a(libc_a-dtoa.o)
                                 0x5c (size before relaxing)
 .rodata.__multadd.str1.4
                0x001003d4       0x35 c:/intelfpga_lite/23.1std/nios2eds/bin/gnu/h-x86_64-mingw32/bin/../lib/gcc/nios2-elf/12.3.1/../../../../../H-x86_64-mingw32/nios2-elf/lib\libc.a(libc_a-mprec.o)
                                 0x49 (size before relaxing)
 *fill*         0x00100409        0x3 
 .rodata.p05.0  0x0010040c        0xc c:/intelfpga_lite/23.1std/nios2eds/bin/gnu/h-x86_64-mingw32/bin/../lib/gcc/nios2-elf/12.3.1/../../../../../H-x86_64-mingw32/nios2-elf/lib\libc.a(libc_a-mprec.o)
 .rodata.__mprec_tinytens
                0x00100418       0x28 c:/intelfpga_lite/23.1std/nios2eds/bin/gnu/h-x86_64-mingw32/bin/../lib/gcc/nios2-elf/12.3.1/../../../../../H-x86_64-mingw32/nios2-elf/lib\libc.a(libc_a-mprec.o)
                0x00100418                __mprec_tinytens
 .rodata.__mprec_bigtens
                0x00100440       0x28 c:/intelfpga_lite/23.1std/nios2eds/bin/gnu/h-x86_64-mingw32/bin/../lib/gcc/nios2-elf/12.3.1/../../../../../H-x86_64-mingw32/nios2-elf/lib\libc.a(libc_a-mprec.o)
                0x00100440                __mprec_bigtens
 .rodata.__mprec_tens
                0x00100468       0xc8 c:/intelfpga_lite/23.1std/nios2eds/bin/gnu/h-x86_64-mingw32/bin/../lib/gcc/nios2-elf/12.3.1/../../../../../H-x86_64-mingw32/nios2-elf/lib\libc.a(libc_a-mprec.o)
                0x00100468                __mprec_tens
 .rodata._ctype_
                0x00100530      0x101 c:/intelfpga_lite/23.1std/nios2eds/bin/gnu/h-x86_64-mingw32/bin/../lib/gcc/nios2-elf/12.3.1/../../../../../H-x86_64-mingw32/nios2-elf/lib\libc.a(libc_a-ctype_.o)
                0x00100530                _ctype_
 *fill*         0x00100631        0x3 
 .rodata._ctype_b
                0x00100634      0x180 c:/intelfpga_lite/23.1std/nios2eds/bin/gnu/h-x86_64-mingw32/bin/../lib/gcc/nios2-elf/12.3.1/../../../../../H-x86_64-mingw32/nios2-elf/lib\libc.a(libc_a-ctype_.o)
                0x00100634                _ctype_b
 .rodata.__assert_func.str1.4
                0x001007b4       0x3f c:/intelfpga_lite/23.1std/nios2eds/bin/gnu/h-x86_64-mingw32/bin/../lib/gcc/nios2-elf/12.3.1/../../../../../H-x86_64-mingw32/nios2-elf/lib\libc.a(libc_a-assert.o)
                                 0x43 (size before relaxing)
 *fill*         0x001007f3        0x1 
 .rodata.str1.4
                0x001007f4        0xa c:/Users/pedro/OneDrive/Documentos/CNN-paralel/Software/c0_bsp/\libhal_bsp.a(alt_dev.o)
 *fill*         0x001007fe        0x2 
 .rodata.alt_main.str1.4
                0x00100800       0x12 c:/Users/pedro/OneDrive/Documentos/CNN-paralel/Software/c0_bsp/\libhal_bsp.a(alt_main.o)
 *fill*         0x00100812        0x2 
 .rodata.str1.4
                0x00100814        0xa c:/Users/pedro/OneDrive/Documentos/CNN-paralel/Software/c0_bsp/\libhal_bsp.a(alt_sys_init.o)
                                 0x1e (size before relaxing)
 *fill*         0x0010081e        0x2 
 .rodata.hcinfo.0
                0x00100820        0xa c:/Users/pedro/OneDrive/Documentos/CNN-paralel/Software/c0_bsp/\libhal_bsp.a(altera_hostfs.o)
 *fill*         0x0010082a        0x2 
 .rodata.hcinfo.1
                0x0010082c        0xa c:/Users/pedro/OneDrive/Documentos/CNN-paralel/Software/c0_bsp/\libhal_bsp.a(altera_hostfs.o)
 *fill*         0x00100836        0x2 
 .rodata.hcinfo.2
                0x00100838        0xa c:/Users/pedro/OneDrive/Documentos/CNN-paralel/Software/c0_bsp/\libhal_bsp.a(altera_hostfs.o)
 *fill*         0x00100842        0x2 
 .rodata.hcinfo.3
                0x00100844        0x9 c:/Users/pedro/OneDrive/Documentos/CNN-paralel/Software/c0_bsp/\libhal_bsp.a(altera_hostfs.o)
 *fill*         0x0010084d        0x3 
 .rodata.hcinfo.4
                0x00100850        0xa c:/Users/pedro/OneDrive/Documentos/CNN-paralel/Software/c0_bsp/\libhal_bsp.a(altera_hostfs.o)
 *fill*         0x0010085a        0x2 
 .rodata.hcinfo.5
                0x0010085c        0x9 c:/Users/pedro/OneDrive/Documentos/CNN-paralel/Software/c0_bsp/\libhal_bsp.a(altera_hostfs.o)
 *(.rodata1)
                0x00100868                        . = ALIGN (0x4)
 *fill*         0x00100865        0x3 
                0x00100868                        PROVIDE (__ram_rodata_end = ABSOLUTE (.))
                0x00011b9c                        PROVIDE (__flash_rodata_start = LOADADDR (.rodata))

.rwdata         0x00100868      0x8c0 load address 0x00012404
                0x00100868                        PROVIDE (__ram_rwdata_start = ABSOLUTE (.))
                0x00100868                        . = ALIGN (0x4)
 *(.got.plt)
 *(.got)
 *(.data1)
 *(.data .data.* .gnu.linkonce.d.*)
 .data          0x00100868        0x0 c:/Users/pedro/OneDrive/Documentos/CNN-paralel/Software/c0_bsp//obj/HAL/src/crt0.o
 .data          0x00100868        0x0 obj/default/image.o
 .data          0x00100868        0x0 obj/default/main.o
 .data          0x00100868        0x0 c:/intelfpga_lite/23.1std/nios2eds/bin/gnu/h-x86_64-mingw32/bin/../lib/gcc/nios2-elf/12.3.1/../../../../../H-x86_64-mingw32/nios2-elf/lib\libm.a(libm_a-w_exp.o)
 .data          0x00100868        0x0 c:/intelfpga_lite/23.1std/nios2eds/bin/gnu/h-x86_64-mingw32/bin/../lib/gcc/nios2-elf/12.3.1/../../../../../H-x86_64-mingw32/nios2-elf/lib\libm.a(libm_a-s_finite.o)
 .data          0x00100868        0x0 c:/intelfpga_lite/23.1std/nios2eds/bin/gnu/h-x86_64-mingw32/bin/../lib/gcc/nios2-elf/12.3.1/../../../../../H-x86_64-mingw32/nios2-elf/lib\libm.a(libm_a-e_exp.o)
 .data          0x00100868        0x0 c:/intelfpga_lite/23.1std/nios2eds/bin/gnu/h-x86_64-mingw32/bin/../lib/gcc/nios2-elf/12.3.1/../../../../../H-x86_64-mingw32/nios2-elf/lib\libm.a(libm_a-math_err.o)
 .data          0x00100868        0x0 c:/intelfpga_lite/23.1std/nios2eds/bin/gnu/h-x86_64-mingw32/bin/../lib/gcc/nios2-elf/12.3.1\libgcc.a(lib2-divmod.o)
 .data          0x00100868        0x0 c:/intelfpga_lite/23.1std/nios2eds/bin/gnu/h-x86_64-mingw32/bin/../lib/gcc/nios2-elf/12.3.1\libgcc.a(addsf3.o)
 .data          0x00100868        0x0 c:/intelfpga_lite/23.1std/nios2eds/bin/gnu/h-x86_64-mingw32/bin/../lib/gcc/nios2-elf/12.3.1\libgcc.a(divsf3.o)
 .data          0x00100868        0x0 c:/intelfpga_lite/23.1std/nios2eds/bin/gnu/h-x86_64-mingw32/bin/../lib/gcc/nios2-elf/12.3.1\libgcc.a(gesf2.o)
 .data          0x00100868        0x0 c:/intelfpga_lite/23.1std/nios2eds/bin/gnu/h-x86_64-mingw32/bin/../lib/gcc/nios2-elf/12.3.1\libgcc.a(lesf2.o)
 .data          0x00100868        0x0 c:/intelfpga_lite/23.1std/nios2eds/bin/gnu/h-x86_64-mingw32/bin/../lib/gcc/nios2-elf/12.3.1\libgcc.a(mulsf3.o)
 .data          0x00100868        0x0 c:/intelfpga_lite/23.1std/nios2eds/bin/gnu/h-x86_64-mingw32/bin/../lib/gcc/nios2-elf/12.3.1\libgcc.a(subsf3.o)
 .data          0x00100868        0x0 c:/intelfpga_lite/23.1std/nios2eds/bin/gnu/h-x86_64-mingw32/bin/../lib/gcc/nios2-elf/12.3.1\libgcc.a(floatunsisf.o)
 .data          0x00100868        0x0 c:/intelfpga_lite/23.1std/nios2eds/bin/gnu/h-x86_64-mingw32/bin/../lib/gcc/nios2-elf/12.3.1\libgcc.a(adddf3.o)
 .data          0x00100868        0x0 c:/intelfpga_lite/23.1std/nios2eds/bin/gnu/h-x86_64-mingw32/bin/../lib/gcc/nios2-elf/12.3.1\libgcc.a(divdf3.o)
 .data          0x00100868        0x0 c:/intelfpga_lite/23.1std/nios2eds/bin/gnu/h-x86_64-mingw32/bin/../lib/gcc/nios2-elf/12.3.1\libgcc.a(eqdf2.o)
 .data          0x00100868        0x0 c:/intelfpga_lite/23.1std/nios2eds/bin/gnu/h-x86_64-mingw32/bin/../lib/gcc/nios2-elf/12.3.1\libgcc.a(gedf2.o)
 .data          0x00100868        0x0 c:/intelfpga_lite/23.1std/nios2eds/bin/gnu/h-x86_64-mingw32/bin/../lib/gcc/nios2-elf/12.3.1\libgcc.a(ledf2.o)
 .data          0x00100868        0x0 c:/intelfpga_lite/23.1std/nios2eds/bin/gnu/h-x86_64-mingw32/bin/../lib/gcc/nios2-elf/12.3.1\libgcc.a(muldf3.o)
 .data          0x00100868        0x0 c:/intelfpga_lite/23.1std/nios2eds/bin/gnu/h-x86_64-mingw32/bin/../lib/gcc/nios2-elf/12.3.1\libgcc.a(subdf3.o)
 .data          0x00100868        0x0 c:/intelfpga_lite/23.1std/nios2eds/bin/gnu/h-x86_64-mingw32/bin/../lib/gcc/nios2-elf/12.3.1\libgcc.a(unorddf2.o)
 .data          0x00100868        0x0 c:/intelfpga_lite/23.1std/nios2eds/bin/gnu/h-x86_64-mingw32/bin/../lib/gcc/nios2-elf/12.3.1\libgcc.a(fixdfsi.o)
 .data          0x00100868        0x0 c:/intelfpga_lite/23.1std/nios2eds/bin/gnu/h-x86_64-mingw32/bin/../lib/gcc/nios2-elf/12.3.1\libgcc.a(floatsidf.o)
 .data          0x00100868        0x0 c:/intelfpga_lite/23.1std/nios2eds/bin/gnu/h-x86_64-mingw32/bin/../lib/gcc/nios2-elf/12.3.1\libgcc.a(extendsfdf2.o)
 .data          0x00100868        0x0 c:/intelfpga_lite/23.1std/nios2eds/bin/gnu/h-x86_64-mingw32/bin/../lib/gcc/nios2-elf/12.3.1\libgcc.a(truncdfsf2.o)
 .data          0x00100868        0x0 c:/intelfpga_lite/23.1std/nios2eds/bin/gnu/h-x86_64-mingw32/bin/../lib/gcc/nios2-elf/12.3.1\libgcc.a(_clzsi2.o)
 .data          0x00100868        0x0 c:/intelfpga_lite/23.1std/nios2eds/bin/gnu/h-x86_64-mingw32/bin/../lib/gcc/nios2-elf/12.3.1\libgcc.a(_clz.o)
 .data          0x00100868        0x0 c:/intelfpga_lite/23.1std/nios2eds/bin/gnu/h-x86_64-mingw32/bin/../lib/gcc/nios2-elf/12.3.1/../../../../../H-x86_64-mingw32/nios2-elf/lib\libc.a(libc_a-exit.o)
 .data          0x00100868        0x0 c:/intelfpga_lite/23.1std/nios2eds/bin/gnu/h-x86_64-mingw32/bin/../lib/gcc/nios2-elf/12.3.1/../../../../../H-x86_64-mingw32/nios2-elf/lib\libc.a(libc_a-fclose.o)
 .data          0x00100868        0x0 c:/intelfpga_lite/23.1std/nios2eds/bin/gnu/h-x86_64-mingw32/bin/../lib/gcc/nios2-elf/12.3.1/../../../../../H-x86_64-mingw32/nios2-elf/lib\libc.a(libc_a-fflush.o)
 .data          0x00100868        0x0 c:/intelfpga_lite/23.1std/nios2eds/bin/gnu/h-x86_64-mingw32/bin/../lib/gcc/nios2-elf/12.3.1/../../../../../H-x86_64-mingw32/nios2-elf/lib\libc.a(libc_a-findfp.o)
 .data.__sglue  0x00100868        0xc c:/intelfpga_lite/23.1std/nios2eds/bin/gnu/h-x86_64-mingw32/bin/../lib/gcc/nios2-elf/12.3.1/../../../../../H-x86_64-mingw32/nios2-elf/lib\libc.a(libc_a-findfp.o)
                0x00100868                __sglue
 .data          0x00100874        0x0 c:/intelfpga_lite/23.1std/nios2eds/bin/gnu/h-x86_64-mingw32/bin/../lib/gcc/nios2-elf/12.3.1/../../../../../H-x86_64-mingw32/nios2-elf/lib\libc.a(libc_a-fopen.o)
 .data          0x00100874        0x0 c:/intelfpga_lite/23.1std/nios2eds/bin/gnu/h-x86_64-mingw32/bin/../lib/gcc/nios2-elf/12.3.1/../../../../../H-x86_64-mingw32/nios2-elf/lib\libc.a(libc_a-fread.o)
 .data          0x00100874        0x0 c:/intelfpga_lite/23.1std/nios2eds/bin/gnu/h-x86_64-mingw32/bin/../lib/gcc/nios2-elf/12.3.1/../../../../../H-x86_64-mingw32/nios2-elf/lib\libc.a(libc_a-fseek.o)
 .data          0x00100874        0x0 c:/intelfpga_lite/23.1std/nios2eds/bin/gnu/h-x86_64-mingw32/bin/../lib/gcc/nios2-elf/12.3.1/../../../../../H-x86_64-mingw32/nios2-elf/lib\libc.a(libc_a-fwalk.o)
 .data          0x00100874        0x0 c:/intelfpga_lite/23.1std/nios2eds/bin/gnu/h-x86_64-mingw32/bin/../lib/gcc/nios2-elf/12.3.1/../../../../../H-x86_64-mingw32/nios2-elf/lib\libc.a(libc_a-printf.o)
 .data          0x00100874        0x0 c:/intelfpga_lite/23.1std/nios2eds/bin/gnu/h-x86_64-mingw32/bin/../lib/gcc/nios2-elf/12.3.1/../../../../../H-x86_64-mingw32/nios2-elf/lib\libc.a(libc_a-putchar.o)
 .data          0x00100874        0x0 c:/intelfpga_lite/23.1std/nios2eds/bin/gnu/h-x86_64-mingw32/bin/../lib/gcc/nios2-elf/12.3.1/../../../../../H-x86_64-mingw32/nios2-elf/lib\libc.a(libc_a-puts.o)
 .data          0x00100874        0x0 c:/intelfpga_lite/23.1std/nios2eds/bin/gnu/h-x86_64-mingw32/bin/../lib/gcc/nios2-elf/12.3.1/../../../../../H-x86_64-mingw32/nios2-elf/lib\libc.a(libc_a-refill.o)
 .data          0x00100874        0x0 c:/intelfpga_lite/23.1std/nios2eds/bin/gnu/h-x86_64-mingw32/bin/../lib/gcc/nios2-elf/12.3.1/../../../../../H-x86_64-mingw32/nios2-elf/lib\libc.a(libc_a-stdio.o)
 .data          0x00100874        0x0 c:/intelfpga_lite/23.1std/nios2eds/bin/gnu/h-x86_64-mingw32/bin/../lib/gcc/nios2-elf/12.3.1/../../../../../H-x86_64-mingw32/nios2-elf/lib\libc.a(libc_a-fseeko.o)
 .data          0x00100874        0x0 c:/intelfpga_lite/23.1std/nios2eds/bin/gnu/h-x86_64-mingw32/bin/../lib/gcc/nios2-elf/12.3.1/../../../../../H-x86_64-mingw32/nios2-elf/lib\libc.a(libc_a-memcpy.o)
 .data          0x00100874        0x0 c:/intelfpga_lite/23.1std/nios2eds/bin/gnu/h-x86_64-mingw32/bin/../lib/gcc/nios2-elf/12.3.1/../../../../../H-x86_64-mingw32/nios2-elf/lib\libc.a(libc_a-memset.o)
 .data          0x00100874        0x0 c:/intelfpga_lite/23.1std/nios2eds/bin/gnu/h-x86_64-mingw32/bin/../lib/gcc/nios2-elf/12.3.1/../../../../../H-x86_64-mingw32/nios2-elf/lib\libc.a(libc_a-strlen.o)
 .data          0x00100874        0x0 c:/intelfpga_lite/23.1std/nios2eds/bin/gnu/h-x86_64-mingw32/bin/../lib/gcc/nios2-elf/12.3.1/../../../../../H-x86_64-mingw32/nios2-elf/lib\libc.a(libc_a-closer.o)
 .data          0x00100874        0x0 c:/intelfpga_lite/23.1std/nios2eds/bin/gnu/h-x86_64-mingw32/bin/../lib/gcc/nios2-elf/12.3.1/../../../../../H-x86_64-mingw32/nios2-elf/lib\libc.a(libc_a-reent.o)
 .data          0x00100874        0x0 c:/intelfpga_lite/23.1std/nios2eds/bin/gnu/h-x86_64-mingw32/bin/../lib/gcc/nios2-elf/12.3.1/../../../../../H-x86_64-mingw32/nios2-elf/lib\libc.a(libc_a-impure.o)
 .data._impure_data
                0x00100874      0x11c c:/intelfpga_lite/23.1std/nios2eds/bin/gnu/h-x86_64-mingw32/bin/../lib/gcc/nios2-elf/12.3.1/../../../../../H-x86_64-mingw32/nios2-elf/lib\libc.a(libc_a-impure.o)
                0x00100874                _impure_data
 .data          0x00100990        0x0 c:/intelfpga_lite/23.1std/nios2eds/bin/gnu/h-x86_64-mingw32/bin/../lib/gcc/nios2-elf/12.3.1/../../../../../H-x86_64-mingw32/nios2-elf/lib\libc.a(libc_a-fstatr.o)
 .data          0x00100990        0x0 c:/intelfpga_lite/23.1std/nios2eds/bin/gnu/h-x86_64-mingw32/bin/../lib/gcc/nios2-elf/12.3.1/../../../../../H-x86_64-mingw32/nios2-elf/lib\libc.a(libc_a-lseekr.o)
 .data          0x00100990        0x0 c:/intelfpga_lite/23.1std/nios2eds/bin/gnu/h-x86_64-mingw32/bin/../lib/gcc/nios2-elf/12.3.1/../../../../../H-x86_64-mingw32/nios2-elf/lib\libc.a(libc_a-openr.o)
 .data          0x00100990        0x0 c:/intelfpga_lite/23.1std/nios2eds/bin/gnu/h-x86_64-mingw32/bin/../lib/gcc/nios2-elf/12.3.1/../../../../../H-x86_64-mingw32/nios2-elf/lib\libc.a(libc_a-readr.o)
 .data          0x00100990        0x0 c:/intelfpga_lite/23.1std/nios2eds/bin/gnu/h-x86_64-mingw32/bin/../lib/gcc/nios2-elf/12.3.1/../../../../../H-x86_64-mingw32/nios2-elf/lib\libc.a(libc_a-writer.o)
 .data          0x00100990        0x0 c:/intelfpga_lite/23.1std/nios2eds/bin/gnu/h-x86_64-mingw32/bin/../lib/gcc/nios2-elf/12.3.1/../../../../../H-x86_64-mingw32/nios2-elf/lib\libc.a(libc_a-errno.o)
 .data          0x00100990        0x0 c:/intelfpga_lite/23.1std/nios2eds/bin/gnu/h-x86_64-mingw32/bin/../lib/gcc/nios2-elf/12.3.1/../../../../../H-x86_64-mingw32/nios2-elf/lib\libc.a(libc_a-__call_atexit.o)
 .data          0x00100990        0x0 c:/intelfpga_lite/23.1std/nios2eds/bin/gnu/h-x86_64-mingw32/bin/../lib/gcc/nios2-elf/12.3.1/../../../../../H-x86_64-mingw32/nios2-elf/lib\libc.a(libc_a-freer.o)
 .data          0x00100990        0x0 c:/intelfpga_lite/23.1std/nios2eds/bin/gnu/h-x86_64-mingw32/bin/../lib/gcc/nios2-elf/12.3.1/../../../../../H-x86_64-mingw32/nios2-elf/lib\libc.a(libc_a-mallocr.o)
 .data.__malloc_av_
                0x00100990      0x408 c:/intelfpga_lite/23.1std/nios2eds/bin/gnu/h-x86_64-mingw32/bin/../lib/gcc/nios2-elf/12.3.1/../../../../../H-x86_64-mingw32/nios2-elf/lib\libc.a(libc_a-mallocr.o)
                0x00100990                __malloc_av_
 .data          0x00100d98        0x0 c:/intelfpga_lite/23.1std/nios2eds/bin/gnu/h-x86_64-mingw32/bin/../lib/gcc/nios2-elf/12.3.1/../../../../../H-x86_64-mingw32/nios2-elf/lib\libc.a(libc_a-vfprintf.o)
 .data          0x00100d98        0x0 c:/intelfpga_lite/23.1std/nios2eds/bin/gnu/h-x86_64-mingw32/bin/../lib/gcc/nios2-elf/12.3.1/../../../../../H-x86_64-mingw32/nios2-elf/lib\libc.a(libc_a-vfiprintf.o)
 .data          0x00100d98        0x0 c:/intelfpga_lite/23.1std/nios2eds/bin/gnu/h-x86_64-mingw32/bin/../lib/gcc/nios2-elf/12.3.1/../../../../../H-x86_64-mingw32/nios2-elf/lib\libc.a(libc_a-flags.o)
 .data          0x00100d98        0x0 c:/intelfpga_lite/23.1std/nios2eds/bin/gnu/h-x86_64-mingw32/bin/../lib/gcc/nios2-elf/12.3.1/../../../../../H-x86_64-mingw32/nios2-elf/lib\libc.a(libc_a-fvwrite.o)
 .data          0x00100d98        0x0 c:/intelfpga_lite/23.1std/nios2eds/bin/gnu/h-x86_64-mingw32/bin/../lib/gcc/nios2-elf/12.3.1/../../../../../H-x86_64-mingw32/nios2-elf/lib\libc.a(libc_a-makebuf.o)
 .data          0x00100d98        0x0 c:/intelfpga_lite/23.1std/nios2eds/bin/gnu/h-x86_64-mingw32/bin/../lib/gcc/nios2-elf/12.3.1/../../../../../H-x86_64-mingw32/nios2-elf/lib\libc.a(libc_a-putc.o)
 .data          0x00100d98        0x0 c:/intelfpga_lite/23.1std/nios2eds/bin/gnu/h-x86_64-mingw32/bin/../lib/gcc/nios2-elf/12.3.1/../../../../../H-x86_64-mingw32/nios2-elf/lib\libc.a(libc_a-wbuf.o)
 .data          0x00100d98        0x0 c:/intelfpga_lite/23.1std/nios2eds/bin/gnu/h-x86_64-mingw32/bin/../lib/gcc/nios2-elf/12.3.1/../../../../../H-x86_64-mingw32/nios2-elf/lib\libc.a(libc_a-wsetup.o)
 .data          0x00100d98        0x0 c:/intelfpga_lite/23.1std/nios2eds/bin/gnu/h-x86_64-mingw32/bin/../lib/gcc/nios2-elf/12.3.1/../../../../../H-x86_64-mingw32/nios2-elf/lib\libc.a(libc_a-fputwc.o)
 .data          0x00100d98        0x0 c:/intelfpga_lite/23.1std/nios2eds/bin/gnu/h-x86_64-mingw32/bin/../lib/gcc/nios2-elf/12.3.1/../../../../../H-x86_64-mingw32/nios2-elf/lib\libc.a(libc_a-memchr.o)
 .data          0x00100d98        0x0 c:/intelfpga_lite/23.1std/nios2eds/bin/gnu/h-x86_64-mingw32/bin/../lib/gcc/nios2-elf/12.3.1/../../../../../H-x86_64-mingw32/nios2-elf/lib\libc.a(libc_a-memmove.o)
 .data          0x00100d98        0x0 c:/intelfpga_lite/23.1std/nios2eds/bin/gnu/h-x86_64-mingw32/bin/../lib/gcc/nios2-elf/12.3.1/../../../../../H-x86_64-mingw32/nios2-elf/lib\libc.a(libc_a-locale.o)
 .data.__global_locale
                0x00100d98      0x16c c:/intelfpga_lite/23.1std/nios2eds/bin/gnu/h-x86_64-mingw32/bin/../lib/gcc/nios2-elf/12.3.1/../../../../../H-x86_64-mingw32/nios2-elf/lib\libc.a(libc_a-locale.o)
                0x00100d98                __global_locale
 .data          0x00100f04        0x0 c:/intelfpga_lite/23.1std/nios2eds/bin/gnu/h-x86_64-mingw32/bin/../lib/gcc/nios2-elf/12.3.1/../../../../../H-x86_64-mingw32/nios2-elf/lib\libc.a(libc_a-localeconv.o)
 .data          0x00100f04        0x0 c:/intelfpga_lite/23.1std/nios2eds/bin/gnu/h-x86_64-mingw32/bin/../lib/gcc/nios2-elf/12.3.1/../../../../../H-x86_64-mingw32/nios2-elf/lib\libc.a(libc_a-isattyr.o)
 .data          0x00100f04        0x0 c:/intelfpga_lite/23.1std/nios2eds/bin/gnu/h-x86_64-mingw32/bin/../lib/gcc/nios2-elf/12.3.1/../../../../../H-x86_64-mingw32/nios2-elf/lib\libc.a(libc_a-sbrkr.o)
 .data          0x00100f04        0x0 c:/intelfpga_lite/23.1std/nios2eds/bin/gnu/h-x86_64-mingw32/bin/../lib/gcc/nios2-elf/12.3.1/../../../../../H-x86_64-mingw32/nios2-elf/lib\libc.a(libc_a-dtoa.o)
 .data          0x00100f04        0x0 c:/intelfpga_lite/23.1std/nios2eds/bin/gnu/h-x86_64-mingw32/bin/../lib/gcc/nios2-elf/12.3.1/../../../../../H-x86_64-mingw32/nios2-elf/lib\libc.a(libc_a-mbtowc_r.o)
 .data          0x00100f04        0x0 c:/intelfpga_lite/23.1std/nios2eds/bin/gnu/h-x86_64-mingw32/bin/../lib/gcc/nios2-elf/12.3.1/../../../../../H-x86_64-mingw32/nios2-elf/lib\libc.a(libc_a-mprec.o)
 .data          0x00100f04        0x0 c:/intelfpga_lite/23.1std/nios2eds/bin/gnu/h-x86_64-mingw32/bin/../lib/gcc/nios2-elf/12.3.1/../../../../../H-x86_64-mingw32/nios2-elf/lib\libc.a(libc_a-reallocr.o)
 .data          0x00100f04        0x0 c:/intelfpga_lite/23.1std/nios2eds/bin/gnu/h-x86_64-mingw32/bin/../lib/gcc/nios2-elf/12.3.1/../../../../../H-x86_64-mingw32/nios2-elf/lib\libc.a(libc_a-wctomb_r.o)
 .data          0x00100f04        0x0 c:/intelfpga_lite/23.1std/nios2eds/bin/gnu/h-x86_64-mingw32/bin/../lib/gcc/nios2-elf/12.3.1/../../../../../H-x86_64-mingw32/nios2-elf/lib\libc.a(libc_a-wcrtomb.o)
 .data          0x00100f04        0x0 c:/intelfpga_lite/23.1std/nios2eds/bin/gnu/h-x86_64-mingw32/bin/../lib/gcc/nios2-elf/12.3.1/../../../../../H-x86_64-mingw32/nios2-elf/lib\libc.a(libc_a-ctype_.o)
 .data          0x00100f04        0x0 c:/intelfpga_lite/23.1std/nios2eds/bin/gnu/h-x86_64-mingw32/bin/../lib/gcc/nios2-elf/12.3.1/../../../../../H-x86_64-mingw32/nios2-elf/lib\libc.a(libc_a-strcmp.o)
 .data          0x00100f04        0x0 c:/intelfpga_lite/23.1std/nios2eds/bin/gnu/h-x86_64-mingw32/bin/../lib/gcc/nios2-elf/12.3.1/../../../../../H-x86_64-mingw32/nios2-elf/lib\libc.a(libc_a-assert.o)
 .data          0x00100f04        0x0 c:/intelfpga_lite/23.1std/nios2eds/bin/gnu/h-x86_64-mingw32/bin/../lib/gcc/nios2-elf/12.3.1/../../../../../H-x86_64-mingw32/nios2-elf/lib\libc.a(libc_a-callocr.o)
 .data          0x00100f04        0x0 c:/intelfpga_lite/23.1std/nios2eds/bin/gnu/h-x86_64-mingw32/bin/../lib/gcc/nios2-elf/12.3.1/../../../../../H-x86_64-mingw32/nios2-elf/lib\libc.a(libc_a-fiprintf.o)
 .data          0x00100f04        0x0 c:/intelfpga_lite/23.1std/nios2eds/bin/gnu/h-x86_64-mingw32/bin/../lib/gcc/nios2-elf/12.3.1/../../../../../H-x86_64-mingw32/nios2-elf/lib\libc.a(libc_a-vfiprintfr_1.o)
 .data          0x00100f04        0x0 c:/intelfpga_lite/23.1std/nios2eds/bin/gnu/h-x86_64-mingw32/bin/../lib/gcc/nios2-elf/12.3.1/../../../../../H-x86_64-mingw32/nios2-elf/lib\libc.a(libc_a-abort.o)
 .data          0x00100f04        0x0 c:/intelfpga_lite/23.1std/nios2eds/bin/gnu/h-x86_64-mingw32/bin/../lib/gcc/nios2-elf/12.3.1/../../../../../H-x86_64-mingw32/nios2-elf/lib\libc.a(libc_a-signal.o)
 .data          0x00100f04        0x0 c:/intelfpga_lite/23.1std/nios2eds/bin/gnu/h-x86_64-mingw32/bin/../lib/gcc/nios2-elf/12.3.1/../../../../../H-x86_64-mingw32/nios2-elf/lib\libc.a(libc_a-signalr.o)
 .data          0x00100f04        0x0 c:/intelfpga_lite/23.1std/nios2eds/bin/gnu/h-x86_64-mingw32/bin/../lib/gcc/nios2-elf/12.3.1\libgcc.a(_udivdi3.o)
 .data          0x00100f04        0x0 c:/intelfpga_lite/23.1std/nios2eds/bin/gnu/h-x86_64-mingw32/bin/../lib/gcc/nios2-elf/12.3.1\libgcc.a(_umoddi3.o)
 .data          0x00100f04        0x0 c:/intelfpga_lite/23.1std/nios2eds/bin/gnu/h-x86_64-mingw32/bin/../lib/gcc/nios2-elf/12.3.1\libgcc.a(floatunsidf.o)
 .data          0x00100f04        0x0 c:/Users/pedro/OneDrive/Documentos/CNN-paralel/Software/c0_bsp/\libhal_bsp.a(alt_close.o)
 .data          0x00100f04        0x0 c:/Users/pedro/OneDrive/Documentos/CNN-paralel/Software/c0_bsp/\libhal_bsp.a(alt_dev.o)
 .data.alt_fd_list
                0x00100f04      0x180 c:/Users/pedro/OneDrive/Documentos/CNN-paralel/Software/c0_bsp/\libhal_bsp.a(alt_dev.o)
                0x00100f04                alt_fd_list
 .data.alt_dev_null
                0x00101084       0x28 c:/Users/pedro/OneDrive/Documentos/CNN-paralel/Software/c0_bsp/\libhal_bsp.a(alt_dev.o)
                0x00101084                alt_dev_null
 .data          0x001010ac        0x0 c:/Users/pedro/OneDrive/Documentos/CNN-paralel/Software/c0_bsp/\libhal_bsp.a(alt_errno.o)
 .data          0x001010ac        0x0 c:/Users/pedro/OneDrive/Documentos/CNN-paralel/Software/c0_bsp/\libhal_bsp.a(alt_fstat.o)
 .data          0x001010ac        0x0 c:/Users/pedro/OneDrive/Documentos/CNN-paralel/Software/c0_bsp/\libhal_bsp.a(alt_getpid.o)
 .data          0x001010ac        0x0 c:/Users/pedro/OneDrive/Documentos/CNN-paralel/Software/c0_bsp/\libhal_bsp.a(alt_isatty.o)
 .data          0x001010ac        0x0 c:/Users/pedro/OneDrive/Documentos/CNN-paralel/Software/c0_bsp/\libhal_bsp.a(alt_kill.o)
 .data          0x001010ac        0x0 c:/Users/pedro/OneDrive/Documentos/CNN-paralel/Software/c0_bsp/\libhal_bsp.a(alt_load.o)
 .data          0x001010ac        0x0 c:/Users/pedro/OneDrive/Documentos/CNN-paralel/Software/c0_bsp/\libhal_bsp.a(alt_lseek.o)
 .data          0x001010ac        0x0 c:/Users/pedro/OneDrive/Documentos/CNN-paralel/Software/c0_bsp/\libhal_bsp.a(alt_main.o)
 .data          0x001010ac        0x0 c:/Users/pedro/OneDrive/Documentos/CNN-paralel/Software/c0_bsp/\libhal_bsp.a(alt_malloc_lock.o)
 .data          0x001010ac        0x0 c:/Users/pedro/OneDrive/Documentos/CNN-paralel/Software/c0_bsp/\libhal_bsp.a(alt_open.o)
 .data          0x001010ac        0x0 c:/Users/pedro/OneDrive/Documentos/CNN-paralel/Software/c0_bsp/\libhal_bsp.a(alt_read.o)
 .data          0x001010ac        0x0 c:/Users/pedro/OneDrive/Documentos/CNN-paralel/Software/c0_bsp/\libhal_bsp.a(alt_release_fd.o)
 .data          0x001010ac        0x0 c:/Users/pedro/OneDrive/Documentos/CNN-paralel/Software/c0_bsp/\libhal_bsp.a(alt_sbrk.o)
 .data          0x001010ac        0x0 c:/Users/pedro/OneDrive/Documentos/CNN-paralel/Software/c0_bsp/\libhal_bsp.a(alt_write.o)
 .data          0x001010ac        0x0 c:/Users/pedro/OneDrive/Documentos/CNN-paralel/Software/c0_bsp/\libhal_bsp.a(alt_sys_init.o)
 .data.altera_hostfs
                0x001010ac       0x28 c:/Users/pedro/OneDrive/Documentos/CNN-paralel/Software/c0_bsp/\libhal_bsp.a(alt_sys_init.o)
 .data.c0_jtag_uart
                0x001010d4       0x2c c:/Users/pedro/OneDrive/Documentos/CNN-paralel/Software/c0_bsp/\libhal_bsp.a(alt_sys_init.o)
 .data          0x00101100        0x0 c:/Users/pedro/OneDrive/Documentos/CNN-paralel/Software/c0_bsp/\libhal_bsp.a(altera_avalon_jtag_uart_fd.o)
 .data          0x00101100        0x0 c:/Users/pedro/OneDrive/Documentos/CNN-paralel/Software/c0_bsp/\libhal_bsp.a(altera_avalon_jtag_uart_read.o)
 .data          0x00101100        0x0 c:/Users/pedro/OneDrive/Documentos/CNN-paralel/Software/c0_bsp/\libhal_bsp.a(altera_avalon_jtag_uart_write.o)
 .data          0x00101100        0x0 c:/Users/pedro/OneDrive/Documentos/CNN-paralel/Software/c0_bsp/\libhal_bsp.a(altera_hostfs.o)
 .data          0x00101100        0x0 c:/Users/pedro/OneDrive/Documentos/CNN-paralel/Software/c0_bsp/\libhal_bsp.a(alt_dcache_flush_all.o)
 .data          0x00101100        0x0 c:/Users/pedro/OneDrive/Documentos/CNN-paralel/Software/c0_bsp/\libhal_bsp.a(alt_dev_llist_insert.o)
 .data          0x00101100        0x0 c:/Users/pedro/OneDrive/Documentos/CNN-paralel/Software/c0_bsp/\libhal_bsp.a(alt_find_dev.o)
 .data          0x00101100        0x0 c:/Users/pedro/OneDrive/Documentos/CNN-paralel/Software/c0_bsp/\libhal_bsp.a(alt_find_file.o)
 .data          0x00101100        0x0 c:/Users/pedro/OneDrive/Documentos/CNN-paralel/Software/c0_bsp/\libhal_bsp.a(alt_fs_reg.o)
 .data          0x00101100        0x0 c:/Users/pedro/OneDrive/Documentos/CNN-paralel/Software/c0_bsp/\libhal_bsp.a(alt_get_fd.o)
 .data          0x00101100        0x0 c:/Users/pedro/OneDrive/Documentos/CNN-paralel/Software/c0_bsp/\libhal_bsp.a(alt_icache_flush_all.o)
 .data          0x00101100        0x0 c:/Users/pedro/OneDrive/Documentos/CNN-paralel/Software/c0_bsp/\libhal_bsp.a(alt_io_redirect.o)
 .data          0x00101100        0x0 c:/Users/pedro/OneDrive/Documentos/CNN-paralel/Software/c0_bsp/\libhal_bsp.a(altera_nios2_gen2_irq.o)
 .data          0x00101100        0x0 c:/intelfpga_lite/23.1std/nios2eds/bin/gnu/h-x86_64-mingw32/bin/../lib/gcc/nios2-elf/12.3.1/../../../../../H-x86_64-mingw32/nios2-elf/lib\libc.a(libc_a-memcmp.o)
                0x00109100                        _gp = ABSOLUTE ((. + 0x8000))
                [!provide]                        PROVIDE (gp = _gp)
 *(.rwdata .rwdata.*)
 *(.sdata .sdata.* .gnu.linkonce.s.*)
 .sdata._impure_ptr
                0x00101100        0x4 c:/intelfpga_lite/23.1std/nios2eds/bin/gnu/h-x86_64-mingw32/bin/../lib/gcc/nios2-elf/12.3.1/../../../../../H-x86_64-mingw32/nios2-elf/lib\libc.a(libc_a-impure.o)
                0x00101100                _impure_ptr
 .sdata.__malloc_sbrk_base
                0x00101104        0x4 c:/intelfpga_lite/23.1std/nios2eds/bin/gnu/h-x86_64-mingw32/bin/../lib/gcc/nios2-elf/12.3.1/../../../../../H-x86_64-mingw32/nios2-elf/lib\libc.a(libc_a-mallocr.o)
                0x00101104                __malloc_sbrk_base
 .sdata.__malloc_trim_threshold
                0x00101108        0x4 c:/intelfpga_lite/23.1std/nios2eds/bin/gnu/h-x86_64-mingw32/bin/../lib/gcc/nios2-elf/12.3.1/../../../../../H-x86_64-mingw32/nios2-elf/lib\libc.a(libc_a-mallocr.o)
                0x00101108                __malloc_trim_threshold
 .sdata.alt_max_fd
                0x0010110c        0x4 c:/Users/pedro/OneDrive/Documentos/CNN-paralel/Software/c0_bsp/\libhal_bsp.a(alt_dev.o)
                0x0010110c                alt_max_fd
 .sdata.alt_dev_list
                0x00101110        0x8 c:/Users/pedro/OneDrive/Documentos/CNN-paralel/Software/c0_bsp/\libhal_bsp.a(alt_dev.o)
                0x00101110                alt_dev_list
 .sdata.alt_fs_list
                0x00101118        0x8 c:/Users/pedro/OneDrive/Documentos/CNN-paralel/Software/c0_bsp/\libhal_bsp.a(alt_dev.o)
                0x00101118                alt_fs_list
 .sdata.alt_errno
                0x00101120        0x4 c:/Users/pedro/OneDrive/Documentos/CNN-paralel/Software/c0_bsp/\libhal_bsp.a(alt_errno.o)
                0x00101120                alt_errno
 .sdata.heap_end
                0x00101124        0x4 c:/Users/pedro/OneDrive/Documentos/CNN-paralel/Software/c0_bsp/\libhal_bsp.a(alt_sbrk.o)
 *(.sdata2 .sdata2.* .gnu.linkonce.s2.*)
                0x00101128                        . = ALIGN (0x4)
                0x00101128                        _edata = ABSOLUTE (.)
                [!provide]                        PROVIDE (edata = ABSOLUTE (.))
                0x00101128                        PROVIDE (__ram_rwdata_end = ABSOLUTE (.))
                0x00012404                        PROVIDE (__flash_rwdata_start = LOADADDR (.rwdata))

.bss            0x00101128    0x7c008 load address 0x00012cc4
                0x00101128                        __bss_start = ABSOLUTE (.)
                [!provide]                        PROVIDE (__sbss_start = ABSOLUTE (.))
                [!provide]                        PROVIDE (___sbss_start = ABSOLUTE (.))
 *(.dynsbss)
 *(.sbss .sbss.* .gnu.linkonce.sb.*)
 .sbss          0x00101128       0x38 obj/default/main.o
                0x00101128                matSoftM
                0x0010112c                matConnB
                0x00101130                matConn
                0x00101134                matCpool
                0x00101138                matCbias
                0x0010113c                matCT
                0x00101140                matC
                0x00101144                matBT
                0x00101148                matB
                0x0010114c                matAT
                0x00101150                matA
                0x00101154                fp_image
                0x00101158                fp_weights
                0x0010115c                ch_images
 .sbss.__stdio_exit_handler
                0x00101160        0x4 c:/intelfpga_lite/23.1std/nios2eds/bin/gnu/h-x86_64-mingw32/bin/../lib/gcc/nios2-elf/12.3.1/../../../../../H-x86_64-mingw32/nios2-elf/lib\libc.a(libc_a-exit.o)
                0x00101160                __stdio_exit_handler
 .sbss.errno    0x00101164        0x4 c:/intelfpga_lite/23.1std/nios2eds/bin/gnu/h-x86_64-mingw32/bin/../lib/gcc/nios2-elf/12.3.1/../../../../../H-x86_64-mingw32/nios2-elf/lib\libc.a(libc_a-reent.o)
                0x00101164                errno
 .sbss.__atexit
                0x00101168        0x4 c:/intelfpga_lite/23.1std/nios2eds/bin/gnu/h-x86_64-mingw32/bin/../lib/gcc/nios2-elf/12.3.1/../../../../../H-x86_64-mingw32/nios2-elf/lib\libc.a(libc_a-__call_atexit.o)
                0x00101168                __atexit
 .sbss.__malloc_max_total_mem
                0x0010116c        0x4 c:/intelfpga_lite/23.1std/nios2eds/bin/gnu/h-x86_64-mingw32/bin/../lib/gcc/nios2-elf/12.3.1/../../../../../H-x86_64-mingw32/nios2-elf/lib\libc.a(libc_a-mallocr.o)
                0x0010116c                __malloc_max_total_mem
 .sbss.__malloc_max_sbrked_mem
                0x00101170        0x4 c:/intelfpga_lite/23.1std/nios2eds/bin/gnu/h-x86_64-mingw32/bin/../lib/gcc/nios2-elf/12.3.1/../../../../../H-x86_64-mingw32/nios2-elf/lib\libc.a(libc_a-mallocr.o)
                0x00101170                __malloc_max_sbrked_mem
 .sbss.__malloc_top_pad
                0x00101174        0x4 c:/intelfpga_lite/23.1std/nios2eds/bin/gnu/h-x86_64-mingw32/bin/../lib/gcc/nios2-elf/12.3.1/../../../../../H-x86_64-mingw32/nios2-elf/lib\libc.a(libc_a-mallocr.o)
                0x00101174                __malloc_top_pad
 .sbss._PathLocale
                0x00101178        0x4 c:/intelfpga_lite/23.1std/nios2eds/bin/gnu/h-x86_64-mingw32/bin/../lib/gcc/nios2-elf/12.3.1/../../../../../H-x86_64-mingw32/nios2-elf/lib\libc.a(libc_a-locale.o)
                0x00101178                _PathLocale
 .sbss.alt_envp
                0x0010117c        0x4 c:/Users/pedro/OneDrive/Documentos/CNN-paralel/Software/c0_bsp/\libhal_bsp.a(alt_main.o)
                0x0010117c                alt_envp
 .sbss.alt_argv
                0x00101180        0x4 c:/Users/pedro/OneDrive/Documentos/CNN-paralel/Software/c0_bsp/\libhal_bsp.a(alt_main.o)
                0x00101180                alt_argv
 .sbss.alt_argc
                0x00101184        0x4 c:/Users/pedro/OneDrive/Documentos/CNN-paralel/Software/c0_bsp/\libhal_bsp.a(alt_main.o)
                0x00101184                alt_argc
 *(.sbss2 .sbss2.* .gnu.linkonce.sb2.*)
 *(.scommon)
                [!provide]                        PROVIDE (__sbss_end = ABSOLUTE (.))
                [!provide]                        PROVIDE (___sbss_end = ABSOLUTE (.))
 *(.dynbss)
 *(.bss .bss.* .gnu.linkonce.b.*)
 .bss           0x00101188        0x0 c:/Users/pedro/OneDrive/Documentos/CNN-paralel/Software/c0_bsp//obj/HAL/src/crt0.o
 .bss           0x00101188        0x0 obj/default/image.o
 .bss           0x00101188    0x7be48 obj/default/main.o
 .bss           0x0017cfd0        0x0 c:/intelfpga_lite/23.1std/nios2eds/bin/gnu/h-x86_64-mingw32/bin/../lib/gcc/nios2-elf/12.3.1/../../../../../H-x86_64-mingw32/nios2-elf/lib\libm.a(libm_a-w_exp.o)
 .bss           0x0017cfd0        0x0 c:/intelfpga_lite/23.1std/nios2eds/bin/gnu/h-x86_64-mingw32/bin/../lib/gcc/nios2-elf/12.3.1/../../../../../H-x86_64-mingw32/nios2-elf/lib\libm.a(libm_a-s_finite.o)
 .bss           0x0017cfd0        0x0 c:/intelfpga_lite/23.1std/nios2eds/bin/gnu/h-x86_64-mingw32/bin/../lib/gcc/nios2-elf/12.3.1/../../../../../H-x86_64-mingw32/nios2-elf/lib\libm.a(libm_a-e_exp.o)
 .bss           0x0017cfd0        0x0 c:/intelfpga_lite/23.1std/nios2eds/bin/gnu/h-x86_64-mingw32/bin/../lib/gcc/nios2-elf/12.3.1/../../../../../H-x86_64-mingw32/nios2-elf/lib\libm.a(libm_a-math_err.o)
 .bss           0x0017cfd0        0x0 c:/intelfpga_lite/23.1std/nios2eds/bin/gnu/h-x86_64-mingw32/bin/../lib/gcc/nios2-elf/12.3.1\libgcc.a(lib2-divmod.o)
 .bss           0x0017cfd0        0x0 c:/intelfpga_lite/23.1std/nios2eds/bin/gnu/h-x86_64-mingw32/bin/../lib/gcc/nios2-elf/12.3.1\libgcc.a(addsf3.o)
 .bss           0x0017cfd0        0x0 c:/intelfpga_lite/23.1std/nios2eds/bin/gnu/h-x86_64-mingw32/bin/../lib/gcc/nios2-elf/12.3.1\libgcc.a(divsf3.o)
 .bss           0x0017cfd0        0x0 c:/intelfpga_lite/23.1std/nios2eds/bin/gnu/h-x86_64-mingw32/bin/../lib/gcc/nios2-elf/12.3.1\libgcc.a(gesf2.o)
 .bss           0x0017cfd0        0x0 c:/intelfpga_lite/23.1std/nios2eds/bin/gnu/h-x86_64-mingw32/bin/../lib/gcc/nios2-elf/12.3.1\libgcc.a(lesf2.o)
 .bss           0x0017cfd0        0x0 c:/intelfpga_lite/23.1std/nios2eds/bin/gnu/h-x86_64-mingw32/bin/../lib/gcc/nios2-elf/12.3.1\libgcc.a(mulsf3.o)
 .bss           0x0017cfd0        0x0 c:/intelfpga_lite/23.1std/nios2eds/bin/gnu/h-x86_64-mingw32/bin/../lib/gcc/nios2-elf/12.3.1\libgcc.a(subsf3.o)
 .bss           0x0017cfd0        0x0 c:/intelfpga_lite/23.1std/nios2eds/bin/gnu/h-x86_64-mingw32/bin/../lib/gcc/nios2-elf/12.3.1\libgcc.a(floatunsisf.o)
 .bss           0x0017cfd0        0x0 c:/intelfpga_lite/23.1std/nios2eds/bin/gnu/h-x86_64-mingw32/bin/../lib/gcc/nios2-elf/12.3.1\libgcc.a(adddf3.o)
 .bss           0x0017cfd0        0x0 c:/intelfpga_lite/23.1std/nios2eds/bin/gnu/h-x86_64-mingw32/bin/../lib/gcc/nios2-elf/12.3.1\libgcc.a(divdf3.o)
 .bss           0x0017cfd0        0x0 c:/intelfpga_lite/23.1std/nios2eds/bin/gnu/h-x86_64-mingw32/bin/../lib/gcc/nios2-elf/12.3.1\libgcc.a(eqdf2.o)
 .bss           0x0017cfd0        0x0 c:/intelfpga_lite/23.1std/nios2eds/bin/gnu/h-x86_64-mingw32/bin/../lib/gcc/nios2-elf/12.3.1\libgcc.a(gedf2.o)
 .bss           0x0017cfd0        0x0 c:/intelfpga_lite/23.1std/nios2eds/bin/gnu/h-x86_64-mingw32/bin/../lib/gcc/nios2-elf/12.3.1\libgcc.a(ledf2.o)
 .bss           0x0017cfd0        0x0 c:/intelfpga_lite/23.1std/nios2eds/bin/gnu/h-x86_64-mingw32/bin/../lib/gcc/nios2-elf/12.3.1\libgcc.a(muldf3.o)
 .bss           0x0017cfd0        0x0 c:/intelfpga_lite/23.1std/nios2eds/bin/gnu/h-x86_64-mingw32/bin/../lib/gcc/nios2-elf/12.3.1\libgcc.a(subdf3.o)
 .bss           0x0017cfd0        0x0 c:/intelfpga_lite/23.1std/nios2eds/bin/gnu/h-x86_64-mingw32/bin/../lib/gcc/nios2-elf/12.3.1\libgcc.a(unorddf2.o)
 .bss           0x0017cfd0        0x0 c:/intelfpga_lite/23.1std/nios2eds/bin/gnu/h-x86_64-mingw32/bin/../lib/gcc/nios2-elf/12.3.1\libgcc.a(fixdfsi.o)
 .bss           0x0017cfd0        0x0 c:/intelfpga_lite/23.1std/nios2eds/bin/gnu/h-x86_64-mingw32/bin/../lib/gcc/nios2-elf/12.3.1\libgcc.a(floatsidf.o)
 .bss           0x0017cfd0        0x0 c:/intelfpga_lite/23.1std/nios2eds/bin/gnu/h-x86_64-mingw32/bin/../lib/gcc/nios2-elf/12.3.1\libgcc.a(extendsfdf2.o)
 .bss           0x0017cfd0        0x0 c:/intelfpga_lite/23.1std/nios2eds/bin/gnu/h-x86_64-mingw32/bin/../lib/gcc/nios2-elf/12.3.1\libgcc.a(truncdfsf2.o)
 .bss           0x0017cfd0        0x0 c:/intelfpga_lite/23.1std/nios2eds/bin/gnu/h-x86_64-mingw32/bin/../lib/gcc/nios2-elf/12.3.1\libgcc.a(_clzsi2.o)
 .bss           0x0017cfd0        0x0 c:/intelfpga_lite/23.1std/nios2eds/bin/gnu/h-x86_64-mingw32/bin/../lib/gcc/nios2-elf/12.3.1\libgcc.a(_clz.o)
 .bss           0x0017cfd0        0x0 c:/intelfpga_lite/23.1std/nios2eds/bin/gnu/h-x86_64-mingw32/bin/../lib/gcc/nios2-elf/12.3.1/../../../../../H-x86_64-mingw32/nios2-elf/lib\libc.a(libc_a-exit.o)
 .bss           0x0017cfd0        0x0 c:/intelfpga_lite/23.1std/nios2eds/bin/gnu/h-x86_64-mingw32/bin/../lib/gcc/nios2-elf/12.3.1/../../../../../H-x86_64-mingw32/nios2-elf/lib\libc.a(libc_a-fclose.o)
 .bss           0x0017cfd0        0x0 c:/intelfpga_lite/23.1std/nios2eds/bin/gnu/h-x86_64-mingw32/bin/../lib/gcc/nios2-elf/12.3.1/../../../../../H-x86_64-mingw32/nios2-elf/lib\libc.a(libc_a-fflush.o)
 .bss           0x0017cfd0        0x0 c:/intelfpga_lite/23.1std/nios2eds/bin/gnu/h-x86_64-mingw32/bin/../lib/gcc/nios2-elf/12.3.1/../../../../../H-x86_64-mingw32/nios2-elf/lib\libc.a(libc_a-findfp.o)
 .bss.__sf      0x0017cfd0      0x138 c:/intelfpga_lite/23.1std/nios2eds/bin/gnu/h-x86_64-mingw32/bin/../lib/gcc/nios2-elf/12.3.1/../../../../../H-x86_64-mingw32/nios2-elf/lib\libc.a(libc_a-findfp.o)
                0x0017cfd0                __sf
 .bss           0x0017d108        0x0 c:/intelfpga_lite/23.1std/nios2eds/bin/gnu/h-x86_64-mingw32/bin/../lib/gcc/nios2-elf/12.3.1/../../../../../H-x86_64-mingw32/nios2-elf/lib\libc.a(libc_a-fopen.o)
 .bss           0x0017d108        0x0 c:/intelfpga_lite/23.1std/nios2eds/bin/gnu/h-x86_64-mingw32/bin/../lib/gcc/nios2-elf/12.3.1/../../../../../H-x86_64-mingw32/nios2-elf/lib\libc.a(libc_a-fread.o)
 .bss           0x0017d108        0x0 c:/intelfpga_lite/23.1std/nios2eds/bin/gnu/h-x86_64-mingw32/bin/../lib/gcc/nios2-elf/12.3.1/../../../../../H-x86_64-mingw32/nios2-elf/lib\libc.a(libc_a-fseek.o)
 .bss           0x0017d108        0x0 c:/intelfpga_lite/23.1std/nios2eds/bin/gnu/h-x86_64-mingw32/bin/../lib/gcc/nios2-elf/12.3.1/../../../../../H-x86_64-mingw32/nios2-elf/lib\libc.a(libc_a-fwalk.o)
 .bss           0x0017d108        0x0 c:/intelfpga_lite/23.1std/nios2eds/bin/gnu/h-x86_64-mingw32/bin/../lib/gcc/nios2-elf/12.3.1/../../../../../H-x86_64-mingw32/nios2-elf/lib\libc.a(libc_a-printf.o)
 .bss           0x0017d108        0x0 c:/intelfpga_lite/23.1std/nios2eds/bin/gnu/h-x86_64-mingw32/bin/../lib/gcc/nios2-elf/12.3.1/../../../../../H-x86_64-mingw32/nios2-elf/lib\libc.a(libc_a-putchar.o)
 .bss           0x0017d108        0x0 c:/intelfpga_lite/23.1std/nios2eds/bin/gnu/h-x86_64-mingw32/bin/../lib/gcc/nios2-elf/12.3.1/../../../../../H-x86_64-mingw32/nios2-elf/lib\libc.a(libc_a-puts.o)
 .bss           0x0017d108        0x0 c:/intelfpga_lite/23.1std/nios2eds/bin/gnu/h-x86_64-mingw32/bin/../lib/gcc/nios2-elf/12.3.1/../../../../../H-x86_64-mingw32/nios2-elf/lib\libc.a(libc_a-refill.o)
 .bss           0x0017d108        0x0 c:/intelfpga_lite/23.1std/nios2eds/bin/gnu/h-x86_64-mingw32/bin/../lib/gcc/nios2-elf/12.3.1/../../../../../H-x86_64-mingw32/nios2-elf/lib\libc.a(libc_a-stdio.o)
 .bss           0x0017d108        0x0 c:/intelfpga_lite/23.1std/nios2eds/bin/gnu/h-x86_64-mingw32/bin/../lib/gcc/nios2-elf/12.3.1/../../../../../H-x86_64-mingw32/nios2-elf/lib\libc.a(libc_a-fseeko.o)
 .bss           0x0017d108        0x0 c:/intelfpga_lite/23.1std/nios2eds/bin/gnu/h-x86_64-mingw32/bin/../lib/gcc/nios2-elf/12.3.1/../../../../../H-x86_64-mingw32/nios2-elf/lib\libc.a(libc_a-memcpy.o)
 .bss           0x0017d108        0x0 c:/intelfpga_lite/23.1std/nios2eds/bin/gnu/h-x86_64-mingw32/bin/../lib/gcc/nios2-elf/12.3.1/../../../../../H-x86_64-mingw32/nios2-elf/lib\libc.a(libc_a-memset.o)
 .bss           0x0017d108        0x0 c:/intelfpga_lite/23.1std/nios2eds/bin/gnu/h-x86_64-mingw32/bin/../lib/gcc/nios2-elf/12.3.1/../../../../../H-x86_64-mingw32/nios2-elf/lib\libc.a(libc_a-strlen.o)
 .bss           0x0017d108        0x0 c:/intelfpga_lite/23.1std/nios2eds/bin/gnu/h-x86_64-mingw32/bin/../lib/gcc/nios2-elf/12.3.1/../../../../../H-x86_64-mingw32/nios2-elf/lib\libc.a(libc_a-closer.o)
 .bss           0x0017d108        0x0 c:/intelfpga_lite/23.1std/nios2eds/bin/gnu/h-x86_64-mingw32/bin/../lib/gcc/nios2-elf/12.3.1/../../../../../H-x86_64-mingw32/nios2-elf/lib\libc.a(libc_a-reent.o)
 .bss           0x0017d108        0x0 c:/intelfpga_lite/23.1std/nios2eds/bin/gnu/h-x86_64-mingw32/bin/../lib/gcc/nios2-elf/12.3.1/../../../../../H-x86_64-mingw32/nios2-elf/lib\libc.a(libc_a-impure.o)
 .bss           0x0017d108        0x0 c:/intelfpga_lite/23.1std/nios2eds/bin/gnu/h-x86_64-mingw32/bin/../lib/gcc/nios2-elf/12.3.1/../../../../../H-x86_64-mingw32/nios2-elf/lib\libc.a(libc_a-fstatr.o)
 .bss           0x0017d108        0x0 c:/intelfpga_lite/23.1std/nios2eds/bin/gnu/h-x86_64-mingw32/bin/../lib/gcc/nios2-elf/12.3.1/../../../../../H-x86_64-mingw32/nios2-elf/lib\libc.a(libc_a-lseekr.o)
 .bss           0x0017d108        0x0 c:/intelfpga_lite/23.1std/nios2eds/bin/gnu/h-x86_64-mingw32/bin/../lib/gcc/nios2-elf/12.3.1/../../../../../H-x86_64-mingw32/nios2-elf/lib\libc.a(libc_a-openr.o)
 .bss           0x0017d108        0x0 c:/intelfpga_lite/23.1std/nios2eds/bin/gnu/h-x86_64-mingw32/bin/../lib/gcc/nios2-elf/12.3.1/../../../../../H-x86_64-mingw32/nios2-elf/lib\libc.a(libc_a-readr.o)
 .bss           0x0017d108        0x0 c:/intelfpga_lite/23.1std/nios2eds/bin/gnu/h-x86_64-mingw32/bin/../lib/gcc/nios2-elf/12.3.1/../../../../../H-x86_64-mingw32/nios2-elf/lib\libc.a(libc_a-writer.o)
 .bss           0x0017d108        0x0 c:/intelfpga_lite/23.1std/nios2eds/bin/gnu/h-x86_64-mingw32/bin/../lib/gcc/nios2-elf/12.3.1/../../../../../H-x86_64-mingw32/nios2-elf/lib\libc.a(libc_a-errno.o)
 .bss           0x0017d108        0x0 c:/intelfpga_lite/23.1std/nios2eds/bin/gnu/h-x86_64-mingw32/bin/../lib/gcc/nios2-elf/12.3.1/../../../../../H-x86_64-mingw32/nios2-elf/lib\libc.a(libc_a-__call_atexit.o)
 .bss           0x0017d108        0x0 c:/intelfpga_lite/23.1std/nios2eds/bin/gnu/h-x86_64-mingw32/bin/../lib/gcc/nios2-elf/12.3.1/../../../../../H-x86_64-mingw32/nios2-elf/lib\libc.a(libc_a-freer.o)
 .bss           0x0017d108        0x0 c:/intelfpga_lite/23.1std/nios2eds/bin/gnu/h-x86_64-mingw32/bin/../lib/gcc/nios2-elf/12.3.1/../../../../../H-x86_64-mingw32/nios2-elf/lib\libc.a(libc_a-mallocr.o)
 .bss.__malloc_current_mallinfo
                0x0017d108       0x28 c:/intelfpga_lite/23.1std/nios2eds/bin/gnu/h-x86_64-mingw32/bin/../lib/gcc/nios2-elf/12.3.1/../../../../../H-x86_64-mingw32/nios2-elf/lib\libc.a(libc_a-mallocr.o)
                0x0017d108                __malloc_current_mallinfo
 .bss           0x0017d130        0x0 c:/intelfpga_lite/23.1std/nios2eds/bin/gnu/h-x86_64-mingw32/bin/../lib/gcc/nios2-elf/12.3.1/../../../../../H-x86_64-mingw32/nios2-elf/lib\libc.a(libc_a-vfprintf.o)
 .bss           0x0017d130        0x0 c:/intelfpga_lite/23.1std/nios2eds/bin/gnu/h-x86_64-mingw32/bin/../lib/gcc/nios2-elf/12.3.1/../../../../../H-x86_64-mingw32/nios2-elf/lib\libc.a(libc_a-vfiprintf.o)
 .bss           0x0017d130        0x0 c:/intelfpga_lite/23.1std/nios2eds/bin/gnu/h-x86_64-mingw32/bin/../lib/gcc/nios2-elf/12.3.1/../../../../../H-x86_64-mingw32/nios2-elf/lib\libc.a(libc_a-flags.o)
 .bss           0x0017d130        0x0 c:/intelfpga_lite/23.1std/nios2eds/bin/gnu/h-x86_64-mingw32/bin/../lib/gcc/nios2-elf/12.3.1/../../../../../H-x86_64-mingw32/nios2-elf/lib\libc.a(libc_a-fvwrite.o)
 .bss           0x0017d130        0x0 c:/intelfpga_lite/23.1std/nios2eds/bin/gnu/h-x86_64-mingw32/bin/../lib/gcc/nios2-elf/12.3.1/../../../../../H-x86_64-mingw32/nios2-elf/lib\libc.a(libc_a-makebuf.o)
 .bss           0x0017d130        0x0 c:/intelfpga_lite/23.1std/nios2eds/bin/gnu/h-x86_64-mingw32/bin/../lib/gcc/nios2-elf/12.3.1/../../../../../H-x86_64-mingw32/nios2-elf/lib\libc.a(libc_a-putc.o)
 .bss           0x0017d130        0x0 c:/intelfpga_lite/23.1std/nios2eds/bin/gnu/h-x86_64-mingw32/bin/../lib/gcc/nios2-elf/12.3.1/../../../../../H-x86_64-mingw32/nios2-elf/lib\libc.a(libc_a-wbuf.o)
 .bss           0x0017d130        0x0 c:/intelfpga_lite/23.1std/nios2eds/bin/gnu/h-x86_64-mingw32/bin/../lib/gcc/nios2-elf/12.3.1/../../../../../H-x86_64-mingw32/nios2-elf/lib\libc.a(libc_a-wsetup.o)
 .bss           0x0017d130        0x0 c:/intelfpga_lite/23.1std/nios2eds/bin/gnu/h-x86_64-mingw32/bin/../lib/gcc/nios2-elf/12.3.1/../../../../../H-x86_64-mingw32/nios2-elf/lib\libc.a(libc_a-fputwc.o)
 .bss           0x0017d130        0x0 c:/intelfpga_lite/23.1std/nios2eds/bin/gnu/h-x86_64-mingw32/bin/../lib/gcc/nios2-elf/12.3.1/../../../../../H-x86_64-mingw32/nios2-elf/lib\libc.a(libc_a-memchr.o)
 .bss           0x0017d130        0x0 c:/intelfpga_lite/23.1std/nios2eds/bin/gnu/h-x86_64-mingw32/bin/../lib/gcc/nios2-elf/12.3.1/../../../../../H-x86_64-mingw32/nios2-elf/lib\libc.a(libc_a-memmove.o)
 .bss           0x0017d130        0x0 c:/intelfpga_lite/23.1std/nios2eds/bin/gnu/h-x86_64-mingw32/bin/../lib/gcc/nios2-elf/12.3.1/../../../../../H-x86_64-mingw32/nios2-elf/lib\libc.a(libc_a-locale.o)
 .bss           0x0017d130        0x0 c:/intelfpga_lite/23.1std/nios2eds/bin/gnu/h-x86_64-mingw32/bin/../lib/gcc/nios2-elf/12.3.1/../../../../../H-x86_64-mingw32/nios2-elf/lib\libc.a(libc_a-localeconv.o)
 .bss           0x0017d130        0x0 c:/intelfpga_lite/23.1std/nios2eds/bin/gnu/h-x86_64-mingw32/bin/../lib/gcc/nios2-elf/12.3.1/../../../../../H-x86_64-mingw32/nios2-elf/lib\libc.a(libc_a-isattyr.o)
 .bss           0x0017d130        0x0 c:/intelfpga_lite/23.1std/nios2eds/bin/gnu/h-x86_64-mingw32/bin/../lib/gcc/nios2-elf/12.3.1/../../../../../H-x86_64-mingw32/nios2-elf/lib\libc.a(libc_a-sbrkr.o)
 .bss           0x0017d130        0x0 c:/intelfpga_lite/23.1std/nios2eds/bin/gnu/h-x86_64-mingw32/bin/../lib/gcc/nios2-elf/12.3.1/../../../../../H-x86_64-mingw32/nios2-elf/lib\libc.a(libc_a-dtoa.o)
 .bss           0x0017d130        0x0 c:/intelfpga_lite/23.1std/nios2eds/bin/gnu/h-x86_64-mingw32/bin/../lib/gcc/nios2-elf/12.3.1/../../../../../H-x86_64-mingw32/nios2-elf/lib\libc.a(libc_a-mbtowc_r.o)
 .bss           0x0017d130        0x0 c:/intelfpga_lite/23.1std/nios2eds/bin/gnu/h-x86_64-mingw32/bin/../lib/gcc/nios2-elf/12.3.1/../../../../../H-x86_64-mingw32/nios2-elf/lib\libc.a(libc_a-mprec.o)
 .bss           0x0017d130        0x0 c:/intelfpga_lite/23.1std/nios2eds/bin/gnu/h-x86_64-mingw32/bin/../lib/gcc/nios2-elf/12.3.1/../../../../../H-x86_64-mingw32/nios2-elf/lib\libc.a(libc_a-reallocr.o)
 .bss           0x0017d130        0x0 c:/intelfpga_lite/23.1std/nios2eds/bin/gnu/h-x86_64-mingw32/bin/../lib/gcc/nios2-elf/12.3.1/../../../../../H-x86_64-mingw32/nios2-elf/lib\libc.a(libc_a-wctomb_r.o)
 .bss           0x0017d130        0x0 c:/intelfpga_lite/23.1std/nios2eds/bin/gnu/h-x86_64-mingw32/bin/../lib/gcc/nios2-elf/12.3.1/../../../../../H-x86_64-mingw32/nios2-elf/lib\libc.a(libc_a-wcrtomb.o)
 .bss           0x0017d130        0x0 c:/intelfpga_lite/23.1std/nios2eds/bin/gnu/h-x86_64-mingw32/bin/../lib/gcc/nios2-elf/12.3.1/../../../../../H-x86_64-mingw32/nios2-elf/lib\libc.a(libc_a-ctype_.o)
 .bss           0x0017d130        0x0 c:/intelfpga_lite/23.1std/nios2eds/bin/gnu/h-x86_64-mingw32/bin/../lib/gcc/nios2-elf/12.3.1/../../../../../H-x86_64-mingw32/nios2-elf/lib\libc.a(libc_a-strcmp.o)
 .bss           0x0017d130        0x0 c:/intelfpga_lite/23.1std/nios2eds/bin/gnu/h-x86_64-mingw32/bin/../lib/gcc/nios2-elf/12.3.1/../../../../../H-x86_64-mingw32/nios2-elf/lib\libc.a(libc_a-assert.o)
 .bss           0x0017d130        0x0 c:/intelfpga_lite/23.1std/nios2eds/bin/gnu/h-x86_64-mingw32/bin/../lib/gcc/nios2-elf/12.3.1/../../../../../H-x86_64-mingw32/nios2-elf/lib\libc.a(libc_a-callocr.o)
 .bss           0x0017d130        0x0 c:/intelfpga_lite/23.1std/nios2eds/bin/gnu/h-x86_64-mingw32/bin/../lib/gcc/nios2-elf/12.3.1/../../../../../H-x86_64-mingw32/nios2-elf/lib\libc.a(libc_a-fiprintf.o)
 .bss           0x0017d130        0x0 c:/intelfpga_lite/23.1std/nios2eds/bin/gnu/h-x86_64-mingw32/bin/../lib/gcc/nios2-elf/12.3.1/../../../../../H-x86_64-mingw32/nios2-elf/lib\libc.a(libc_a-vfiprintfr_1.o)
 .bss           0x0017d130        0x0 c:/intelfpga_lite/23.1std/nios2eds/bin/gnu/h-x86_64-mingw32/bin/../lib/gcc/nios2-elf/12.3.1/../../../../../H-x86_64-mingw32/nios2-elf/lib\libc.a(libc_a-abort.o)
 .bss           0x0017d130        0x0 c:/intelfpga_lite/23.1std/nios2eds/bin/gnu/h-x86_64-mingw32/bin/../lib/gcc/nios2-elf/12.3.1/../../../../../H-x86_64-mingw32/nios2-elf/lib\libc.a(libc_a-signal.o)
 .bss           0x0017d130        0x0 c:/intelfpga_lite/23.1std/nios2eds/bin/gnu/h-x86_64-mingw32/bin/../lib/gcc/nios2-elf/12.3.1/../../../../../H-x86_64-mingw32/nios2-elf/lib\libc.a(libc_a-signalr.o)
 .bss           0x0017d130        0x0 c:/intelfpga_lite/23.1std/nios2eds/bin/gnu/h-x86_64-mingw32/bin/../lib/gcc/nios2-elf/12.3.1\libgcc.a(_udivdi3.o)
 .bss           0x0017d130        0x0 c:/intelfpga_lite/23.1std/nios2eds/bin/gnu/h-x86_64-mingw32/bin/../lib/gcc/nios2-elf/12.3.1\libgcc.a(_umoddi3.o)
 .bss           0x0017d130        0x0 c:/intelfpga_lite/23.1std/nios2eds/bin/gnu/h-x86_64-mingw32/bin/../lib/gcc/nios2-elf/12.3.1\libgcc.a(floatunsidf.o)
 .bss           0x0017d130        0x0 c:/Users/pedro/OneDrive/Documentos/CNN-paralel/Software/c0_bsp/\libhal_bsp.a(alt_close.o)
 .bss           0x0017d130        0x0 c:/Users/pedro/OneDrive/Documentos/CNN-paralel/Software/c0_bsp/\libhal_bsp.a(alt_dev.o)
 .bss           0x0017d130        0x0 c:/Users/pedro/OneDrive/Documentos/CNN-paralel/Software/c0_bsp/\libhal_bsp.a(alt_errno.o)
 .bss           0x0017d130        0x0 c:/Users/pedro/OneDrive/Documentos/CNN-paralel/Software/c0_bsp/\libhal_bsp.a(alt_fstat.o)
 .bss           0x0017d130        0x0 c:/Users/pedro/OneDrive/Documentos/CNN-paralel/Software/c0_bsp/\libhal_bsp.a(alt_getpid.o)
 .bss           0x0017d130        0x0 c:/Users/pedro/OneDrive/Documentos/CNN-paralel/Software/c0_bsp/\libhal_bsp.a(alt_isatty.o)
 .bss           0x0017d130        0x0 c:/Users/pedro/OneDrive/Documentos/CNN-paralel/Software/c0_bsp/\libhal_bsp.a(alt_kill.o)
 .bss           0x0017d130        0x0 c:/Users/pedro/OneDrive/Documentos/CNN-paralel/Software/c0_bsp/\libhal_bsp.a(alt_load.o)
 .bss           0x0017d130        0x0 c:/Users/pedro/OneDrive/Documentos/CNN-paralel/Software/c0_bsp/\libhal_bsp.a(alt_lseek.o)
 .bss           0x0017d130        0x0 c:/Users/pedro/OneDrive/Documentos/CNN-paralel/Software/c0_bsp/\libhal_bsp.a(alt_main.o)
 .bss           0x0017d130        0x0 c:/Users/pedro/OneDrive/Documentos/CNN-paralel/Software/c0_bsp/\libhal_bsp.a(alt_malloc_lock.o)
 .bss           0x0017d130        0x0 c:/Users/pedro/OneDrive/Documentos/CNN-paralel/Software/c0_bsp/\libhal_bsp.a(alt_open.o)
 .bss           0x0017d130        0x0 c:/Users/pedro/OneDrive/Documentos/CNN-paralel/Software/c0_bsp/\libhal_bsp.a(alt_read.o)
 .bss           0x0017d130        0x0 c:/Users/pedro/OneDrive/Documentos/CNN-paralel/Software/c0_bsp/\libhal_bsp.a(alt_release_fd.o)
 .bss           0x0017d130        0x0 c:/Users/pedro/OneDrive/Documentos/CNN-paralel/Software/c0_bsp/\libhal_bsp.a(alt_sbrk.o)
 .bss           0x0017d130        0x0 c:/Users/pedro/OneDrive/Documentos/CNN-paralel/Software/c0_bsp/\libhal_bsp.a(alt_write.o)
 .bss           0x0017d130        0x0 c:/Users/pedro/OneDrive/Documentos/CNN-paralel/Software/c0_bsp/\libhal_bsp.a(alt_sys_init.o)
 .bss           0x0017d130        0x0 c:/Users/pedro/OneDrive/Documentos/CNN-paralel/Software/c0_bsp/\libhal_bsp.a(altera_avalon_jtag_uart_fd.o)
 .bss           0x0017d130        0x0 c:/Users/pedro/OneDrive/Documentos/CNN-paralel/Software/c0_bsp/\libhal_bsp.a(altera_avalon_jtag_uart_read.o)
 .bss           0x0017d130        0x0 c:/Users/pedro/OneDrive/Documentos/CNN-paralel/Software/c0_bsp/\libhal_bsp.a(altera_avalon_jtag_uart_write.o)
 .bss           0x0017d130        0x0 c:/Users/pedro/OneDrive/Documentos/CNN-paralel/Software/c0_bsp/\libhal_bsp.a(altera_hostfs.o)
 .bss           0x0017d130        0x0 c:/Users/pedro/OneDrive/Documentos/CNN-paralel/Software/c0_bsp/\libhal_bsp.a(alt_dcache_flush_all.o)
 .bss           0x0017d130        0x0 c:/Users/pedro/OneDrive/Documentos/CNN-paralel/Software/c0_bsp/\libhal_bsp.a(alt_dev_llist_insert.o)
 .bss           0x0017d130        0x0 c:/Users/pedro/OneDrive/Documentos/CNN-paralel/Software/c0_bsp/\libhal_bsp.a(alt_find_dev.o)
 .bss           0x0017d130        0x0 c:/Users/pedro/OneDrive/Documentos/CNN-paralel/Software/c0_bsp/\libhal_bsp.a(alt_find_file.o)
 .bss           0x0017d130        0x0 c:/Users/pedro/OneDrive/Documentos/CNN-paralel/Software/c0_bsp/\libhal_bsp.a(alt_fs_reg.o)
 .bss           0x0017d130        0x0 c:/Users/pedro/OneDrive/Documentos/CNN-paralel/Software/c0_bsp/\libhal_bsp.a(alt_get_fd.o)
 .bss           0x0017d130        0x0 c:/Users/pedro/OneDrive/Documentos/CNN-paralel/Software/c0_bsp/\libhal_bsp.a(alt_icache_flush_all.o)
 .bss           0x0017d130        0x0 c:/Users/pedro/OneDrive/Documentos/CNN-paralel/Software/c0_bsp/\libhal_bsp.a(alt_io_redirect.o)
 .bss           0x0017d130        0x0 c:/Users/pedro/OneDrive/Documentos/CNN-paralel/Software/c0_bsp/\libhal_bsp.a(altera_nios2_gen2_irq.o)
 .bss           0x0017d130        0x0 c:/intelfpga_lite/23.1std/nios2eds/bin/gnu/h-x86_64-mingw32/bin/../lib/gcc/nios2-elf/12.3.1/../../../../../H-x86_64-mingw32/nios2-elf/lib\libc.a(libc_a-memcmp.o)
 *(COMMON)
                0x0017d130                        . = ALIGN (0x4)
                0x0017d130                        __bss_end = ABSOLUTE (.)

.c0_rom         0x00012cc4        0x0
                [!provide]                        PROVIDE (_alt_partition_c0_rom_start = ABSOLUTE (.))
 *(.c0_rom .c0_rom. c0_rom.*)
                0x00012cc4                        . = ALIGN (0x4)
                [!provide]                        PROVIDE (_alt_partition_c0_rom_end = ABSOLUTE (.))
                [!provide]                        PROVIDE (_alt_partition_c0_rom_load_addr = LOADADDR (.c0_rom))

.c0_ram         0x0017d130        0x0 load address 0x00012cc4
                [!provide]                        PROVIDE (_alt_partition_c0_ram_start = ABSOLUTE (.))
 *(.c0_ram .c0_ram. c0_ram.*)
                0x0017d130                        . = ALIGN (0x4)
                [!provide]                        PROVIDE (_alt_partition_c0_ram_end = ABSOLUTE (.))
                0x0017d130                        _end = ABSOLUTE (.)
                0x0017d130                        end = ABSOLUTE (.)
                0x0017d130                        __alt_stack_base = ABSOLUTE (.)
                [!provide]                        PROVIDE (_alt_partition_c0_ram_load_addr = LOADADDR (.c0_ram))

.stab
 *(.stab)

.stabstr
 *(.stabstr)

.stab.excl
 *(.stab.excl)

.stab.exclstr
 *(.stab.exclstr)

.stab.index
 *(.stab.index)

.stab.indexstr
 *(.stab.indexstr)

.comment        0x00000000       0x2d
 *(.comment)
 .comment       0x00000000       0x2d obj/default/image.o
                                 0x2e (size before relaxing)
 .comment       0x0000002d       0x2e obj/default/main.o
 .comment       0x0000002d       0x2e c:/intelfpga_lite/23.1std/nios2eds/bin/gnu/h-x86_64-mingw32/bin/../lib/gcc/nios2-elf/12.3.1/../../../../../H-x86_64-mingw32/nios2-elf/lib\libm.a(libm_a-w_exp.o)
 .comment       0x0000002d       0x2e c:/intelfpga_lite/23.1std/nios2eds/bin/gnu/h-x86_64-mingw32/bin/../lib/gcc/nios2-elf/12.3.1/../../../../../H-x86_64-mingw32/nios2-elf/lib\libm.a(libm_a-s_finite.o)
 .comment       0x0000002d       0x2e c:/intelfpga_lite/23.1std/nios2eds/bin/gnu/h-x86_64-mingw32/bin/../lib/gcc/nios2-elf/12.3.1/../../../../../H-x86_64-mingw32/nios2-elf/lib\libm.a(libm_a-e_exp.o)
 .comment       0x0000002d       0x2e c:/intelfpga_lite/23.1std/nios2eds/bin/gnu/h-x86_64-mingw32/bin/../lib/gcc/nios2-elf/12.3.1/../../../../../H-x86_64-mingw32/nios2-elf/lib\libm.a(libm_a-math_err.o)
 .comment       0x0000002d       0x2e c:/intelfpga_lite/23.1std/nios2eds/bin/gnu/h-x86_64-mingw32/bin/../lib/gcc/nios2-elf/12.3.1\libgcc.a(lib2-divmod.o)
 .comment       0x0000002d       0x2e c:/intelfpga_lite/23.1std/nios2eds/bin/gnu/h-x86_64-mingw32/bin/../lib/gcc/nios2-elf/12.3.1\libgcc.a(addsf3.o)
 .comment       0x0000002d       0x2e c:/intelfpga_lite/23.1std/nios2eds/bin/gnu/h-x86_64-mingw32/bin/../lib/gcc/nios2-elf/12.3.1\libgcc.a(divsf3.o)
 .comment       0x0000002d       0x2e c:/intelfpga_lite/23.1std/nios2eds/bin/gnu/h-x86_64-mingw32/bin/../lib/gcc/nios2-elf/12.3.1\libgcc.a(gesf2.o)
 .comment       0x0000002d       0x2e c:/intelfpga_lite/23.1std/nios2eds/bin/gnu/h-x86_64-mingw32/bin/../lib/gcc/nios2-elf/12.3.1\libgcc.a(lesf2.o)
 .comment       0x0000002d       0x2e c:/intelfpga_lite/23.1std/nios2eds/bin/gnu/h-x86_64-mingw32/bin/../lib/gcc/nios2-elf/12.3.1\libgcc.a(mulsf3.o)
 .comment       0x0000002d       0x2e c:/intelfpga_lite/23.1std/nios2eds/bin/gnu/h-x86_64-mingw32/bin/../lib/gcc/nios2-elf/12.3.1\libgcc.a(subsf3.o)
 .comment       0x0000002d       0x2e c:/intelfpga_lite/23.1std/nios2eds/bin/gnu/h-x86_64-mingw32/bin/../lib/gcc/nios2-elf/12.3.1\libgcc.a(floatunsisf.o)
 .comment       0x0000002d       0x2e c:/intelfpga_lite/23.1std/nios2eds/bin/gnu/h-x86_64-mingw32/bin/../lib/gcc/nios2-elf/12.3.1\libgcc.a(adddf3.o)
 .comment       0x0000002d       0x2e c:/intelfpga_lite/23.1std/nios2eds/bin/gnu/h-x86_64-mingw32/bin/../lib/gcc/nios2-elf/12.3.1\libgcc.a(divdf3.o)
 .comment       0x0000002d       0x2e c:/intelfpga_lite/23.1std/nios2eds/bin/gnu/h-x86_64-mingw32/bin/../lib/gcc/nios2-elf/12.3.1\libgcc.a(eqdf2.o)
 .comment       0x0000002d       0x2e c:/intelfpga_lite/23.1std/nios2eds/bin/gnu/h-x86_64-mingw32/bin/../lib/gcc/nios2-elf/12.3.1\libgcc.a(gedf2.o)
 .comment       0x0000002d       0x2e c:/intelfpga_lite/23.1std/nios2eds/bin/gnu/h-x86_64-mingw32/bin/../lib/gcc/nios2-elf/12.3.1\libgcc.a(ledf2.o)
 .comment       0x0000002d       0x2e c:/intelfpga_lite/23.1std/nios2eds/bin/gnu/h-x86_64-mingw32/bin/../lib/gcc/nios2-elf/12.3.1\libgcc.a(muldf3.o)
 .comment       0x0000002d       0x2e c:/intelfpga_lite/23.1std/nios2eds/bin/gnu/h-x86_64-mingw32/bin/../lib/gcc/nios2-elf/12.3.1\libgcc.a(subdf3.o)
 .comment       0x0000002d       0x2e c:/intelfpga_lite/23.1std/nios2eds/bin/gnu/h-x86_64-mingw32/bin/../lib/gcc/nios2-elf/12.3.1\libgcc.a(unorddf2.o)
 .comment       0x0000002d       0x2e c:/intelfpga_lite/23.1std/nios2eds/bin/gnu/h-x86_64-mingw32/bin/../lib/gcc/nios2-elf/12.3.1\libgcc.a(fixdfsi.o)
 .comment       0x0000002d       0x2e c:/intelfpga_lite/23.1std/nios2eds/bin/gnu/h-x86_64-mingw32/bin/../lib/gcc/nios2-elf/12.3.1\libgcc.a(floatsidf.o)
 .comment       0x0000002d       0x2e c:/intelfpga_lite/23.1std/nios2eds/bin/gnu/h-x86_64-mingw32/bin/../lib/gcc/nios2-elf/12.3.1\libgcc.a(extendsfdf2.o)
 .comment       0x0000002d       0x2e c:/intelfpga_lite/23.1std/nios2eds/bin/gnu/h-x86_64-mingw32/bin/../lib/gcc/nios2-elf/12.3.1\libgcc.a(truncdfsf2.o)
 .comment       0x0000002d       0x2e c:/intelfpga_lite/23.1std/nios2eds/bin/gnu/h-x86_64-mingw32/bin/../lib/gcc/nios2-elf/12.3.1\libgcc.a(_clzsi2.o)
 .comment       0x0000002d       0x2e c:/intelfpga_lite/23.1std/nios2eds/bin/gnu/h-x86_64-mingw32/bin/../lib/gcc/nios2-elf/12.3.1\libgcc.a(_clz.o)
 .comment       0x0000002d       0x2e c:/intelfpga_lite/23.1std/nios2eds/bin/gnu/h-x86_64-mingw32/bin/../lib/gcc/nios2-elf/12.3.1/../../../../../H-x86_64-mingw32/nios2-elf/lib\libc.a(libc_a-exit.o)
 .comment       0x0000002d       0x2e c:/intelfpga_lite/23.1std/nios2eds/bin/gnu/h-x86_64-mingw32/bin/../lib/gcc/nios2-elf/12.3.1/../../../../../H-x86_64-mingw32/nios2-elf/lib\libc.a(libc_a-fclose.o)
 .comment       0x0000002d       0x2e c:/intelfpga_lite/23.1std/nios2eds/bin/gnu/h-x86_64-mingw32/bin/../lib/gcc/nios2-elf/12.3.1/../../../../../H-x86_64-mingw32/nios2-elf/lib\libc.a(libc_a-fflush.o)
 .comment       0x0000002d       0x2e c:/intelfpga_lite/23.1std/nios2eds/bin/gnu/h-x86_64-mingw32/bin/../lib/gcc/nios2-elf/12.3.1/../../../../../H-x86_64-mingw32/nios2-elf/lib\libc.a(libc_a-findfp.o)
 .comment       0x0000002d       0x2e c:/intelfpga_lite/23.1std/nios2eds/bin/gnu/h-x86_64-mingw32/bin/../lib/gcc/nios2-elf/12.3.1/../../../../../H-x86_64-mingw32/nios2-elf/lib\libc.a(libc_a-fopen.o)
 .comment       0x0000002d       0x2e c:/intelfpga_lite/23.1std/nios2eds/bin/gnu/h-x86_64-mingw32/bin/../lib/gcc/nios2-elf/12.3.1/../../../../../H-x86_64-mingw32/nios2-elf/lib\libc.a(libc_a-fread.o)
 .comment       0x0000002d       0x2e c:/intelfpga_lite/23.1std/nios2eds/bin/gnu/h-x86_64-mingw32/bin/../lib/gcc/nios2-elf/12.3.1/../../../../../H-x86_64-mingw32/nios2-elf/lib\libc.a(libc_a-fseek.o)
 .comment       0x0000002d       0x2e c:/intelfpga_lite/23.1std/nios2eds/bin/gnu/h-x86_64-mingw32/bin/../lib/gcc/nios2-elf/12.3.1/../../../../../H-x86_64-mingw32/nios2-elf/lib\libc.a(libc_a-fwalk.o)
 .comment       0x0000002d       0x2e c:/intelfpga_lite/23.1std/nios2eds/bin/gnu/h-x86_64-mingw32/bin/../lib/gcc/nios2-elf/12.3.1/../../../../../H-x86_64-mingw32/nios2-elf/lib\libc.a(libc_a-printf.o)
 .comment       0x0000002d       0x2e c:/intelfpga_lite/23.1std/nios2eds/bin/gnu/h-x86_64-mingw32/bin/../lib/gcc/nios2-elf/12.3.1/../../../../../H-x86_64-mingw32/nios2-elf/lib\libc.a(libc_a-putchar.o)
 .comment       0x0000002d       0x2e c:/intelfpga_lite/23.1std/nios2eds/bin/gnu/h-x86_64-mingw32/bin/../lib/gcc/nios2-elf/12.3.1/../../../../../H-x86_64-mingw32/nios2-elf/lib\libc.a(libc_a-puts.o)
 .comment       0x0000002d       0x2e c:/intelfpga_lite/23.1std/nios2eds/bin/gnu/h-x86_64-mingw32/bin/../lib/gcc/nios2-elf/12.3.1/../../../../../H-x86_64-mingw32/nios2-elf/lib\libc.a(libc_a-refill.o)
 .comment       0x0000002d       0x2e c:/intelfpga_lite/23.1std/nios2eds/bin/gnu/h-x86_64-mingw32/bin/../lib/gcc/nios2-elf/12.3.1/../../../../../H-x86_64-mingw32/nios2-elf/lib\libc.a(libc_a-stdio.o)
 .comment       0x0000002d       0x2e c:/intelfpga_lite/23.1std/nios2eds/bin/gnu/h-x86_64-mingw32/bin/../lib/gcc/nios2-elf/12.3.1/../../../../../H-x86_64-mingw32/nios2-elf/lib\libc.a(libc_a-fseeko.o)
 .comment       0x0000002d       0x2e c:/intelfpga_lite/23.1std/nios2eds/bin/gnu/h-x86_64-mingw32/bin/../lib/gcc/nios2-elf/12.3.1/../../../../../H-x86_64-mingw32/nios2-elf/lib\libc.a(libc_a-memcpy.o)
 .comment       0x0000002d       0x2e c:/intelfpga_lite/23.1std/nios2eds/bin/gnu/h-x86_64-mingw32/bin/../lib/gcc/nios2-elf/12.3.1/../../../../../H-x86_64-mingw32/nios2-elf/lib\libc.a(libc_a-memset.o)
 .comment       0x0000002d       0x2e c:/intelfpga_lite/23.1std/nios2eds/bin/gnu/h-x86_64-mingw32/bin/../lib/gcc/nios2-elf/12.3.1/../../../../../H-x86_64-mingw32/nios2-elf/lib\libc.a(libc_a-strlen.o)
 .comment       0x0000002d       0x2e c:/intelfpga_lite/23.1std/nios2eds/bin/gnu/h-x86_64-mingw32/bin/../lib/gcc/nios2-elf/12.3.1/../../../../../H-x86_64-mingw32/nios2-elf/lib\libc.a(libc_a-closer.o)
 .comment       0x0000002d       0x2e c:/intelfpga_lite/23.1std/nios2eds/bin/gnu/h-x86_64-mingw32/bin/../lib/gcc/nios2-elf/12.3.1/../../../../../H-x86_64-mingw32/nios2-elf/lib\libc.a(libc_a-reent.o)
 .comment       0x0000002d       0x2e c:/intelfpga_lite/23.1std/nios2eds/bin/gnu/h-x86_64-mingw32/bin/../lib/gcc/nios2-elf/12.3.1/../../../../../H-x86_64-mingw32/nios2-elf/lib\libc.a(libc_a-impure.o)
 .comment       0x0000002d       0x2e c:/intelfpga_lite/23.1std/nios2eds/bin/gnu/h-x86_64-mingw32/bin/../lib/gcc/nios2-elf/12.3.1/../../../../../H-x86_64-mingw32/nios2-elf/lib\libc.a(libc_a-fstatr.o)
 .comment       0x0000002d       0x2e c:/intelfpga_lite/23.1std/nios2eds/bin/gnu/h-x86_64-mingw32/bin/../lib/gcc/nios2-elf/12.3.1/../../../../../H-x86_64-mingw32/nios2-elf/lib\libc.a(libc_a-lseekr.o)
 .comment       0x0000002d       0x2e c:/intelfpga_lite/23.1std/nios2eds/bin/gnu/h-x86_64-mingw32/bin/../lib/gcc/nios2-elf/12.3.1/../../../../../H-x86_64-mingw32/nios2-elf/lib\libc.a(libc_a-openr.o)
 .comment       0x0000002d       0x2e c:/intelfpga_lite/23.1std/nios2eds/bin/gnu/h-x86_64-mingw32/bin/../lib/gcc/nios2-elf/12.3.1/../../../../../H-x86_64-mingw32/nios2-elf/lib\libc.a(libc_a-readr.o)
 .comment       0x0000002d       0x2e c:/intelfpga_lite/23.1std/nios2eds/bin/gnu/h-x86_64-mingw32/bin/../lib/gcc/nios2-elf/12.3.1/../../../../../H-x86_64-mingw32/nios2-elf/lib\libc.a(libc_a-writer.o)
 .comment       0x0000002d       0x2e c:/intelfpga_lite/23.1std/nios2eds/bin/gnu/h-x86_64-mingw32/bin/../lib/gcc/nios2-elf/12.3.1/../../../../../H-x86_64-mingw32/nios2-elf/lib\libc.a(libc_a-errno.o)
 .comment       0x0000002d       0x2e c:/intelfpga_lite/23.1std/nios2eds/bin/gnu/h-x86_64-mingw32/bin/../lib/gcc/nios2-elf/12.3.1/../../../../../H-x86_64-mingw32/nios2-elf/lib\libc.a(libc_a-__call_atexit.o)
 .comment       0x0000002d       0x2e c:/intelfpga_lite/23.1std/nios2eds/bin/gnu/h-x86_64-mingw32/bin/../lib/gcc/nios2-elf/12.3.1/../../../../../H-x86_64-mingw32/nios2-elf/lib\libc.a(libc_a-freer.o)
 .comment       0x0000002d       0x2e c:/intelfpga_lite/23.1std/nios2eds/bin/gnu/h-x86_64-mingw32/bin/../lib/gcc/nios2-elf/12.3.1/../../../../../H-x86_64-mingw32/nios2-elf/lib\libc.a(libc_a-mallocr.o)
 .comment       0x0000002d       0x2e c:/intelfpga_lite/23.1std/nios2eds/bin/gnu/h-x86_64-mingw32/bin/../lib/gcc/nios2-elf/12.3.1/../../../../../H-x86_64-mingw32/nios2-elf/lib\libc.a(libc_a-vfprintf.o)
 .comment       0x0000002d       0x2e c:/intelfpga_lite/23.1std/nios2eds/bin/gnu/h-x86_64-mingw32/bin/../lib/gcc/nios2-elf/12.3.1/../../../../../H-x86_64-mingw32/nios2-elf/lib\libc.a(libc_a-vfiprintf.o)
 .comment       0x0000002d       0x2e c:/intelfpga_lite/23.1std/nios2eds/bin/gnu/h-x86_64-mingw32/bin/../lib/gcc/nios2-elf/12.3.1/../../../../../H-x86_64-mingw32/nios2-elf/lib\libc.a(libc_a-flags.o)
 .comment       0x0000002d       0x2e c:/intelfpga_lite/23.1std/nios2eds/bin/gnu/h-x86_64-mingw32/bin/../lib/gcc/nios2-elf/12.3.1/../../../../../H-x86_64-mingw32/nios2-elf/lib\libc.a(libc_a-fvwrite.o)
 .comment       0x0000002d       0x2e c:/intelfpga_lite/23.1std/nios2eds/bin/gnu/h-x86_64-mingw32/bin/../lib/gcc/nios2-elf/12.3.1/../../../../../H-x86_64-mingw32/nios2-elf/lib\libc.a(libc_a-makebuf.o)
 .comment       0x0000002d       0x2e c:/intelfpga_lite/23.1std/nios2eds/bin/gnu/h-x86_64-mingw32/bin/../lib/gcc/nios2-elf/12.3.1/../../../../../H-x86_64-mingw32/nios2-elf/lib\libc.a(libc_a-putc.o)
 .comment       0x0000002d       0x2e c:/intelfpga_lite/23.1std/nios2eds/bin/gnu/h-x86_64-mingw32/bin/../lib/gcc/nios2-elf/12.3.1/../../../../../H-x86_64-mingw32/nios2-elf/lib\libc.a(libc_a-wbuf.o)
 .comment       0x0000002d       0x2e c:/intelfpga_lite/23.1std/nios2eds/bin/gnu/h-x86_64-mingw32/bin/../lib/gcc/nios2-elf/12.3.1/../../../../../H-x86_64-mingw32/nios2-elf/lib\libc.a(libc_a-wsetup.o)
 .comment       0x0000002d       0x2e c:/intelfpga_lite/23.1std/nios2eds/bin/gnu/h-x86_64-mingw32/bin/../lib/gcc/nios2-elf/12.3.1/../../../../../H-x86_64-mingw32/nios2-elf/lib\libc.a(libc_a-fputwc.o)
 .comment       0x0000002d       0x2e c:/intelfpga_lite/23.1std/nios2eds/bin/gnu/h-x86_64-mingw32/bin/../lib/gcc/nios2-elf/12.3.1/../../../../../H-x86_64-mingw32/nios2-elf/lib\libc.a(libc_a-memchr.o)
 .comment       0x0000002d       0x2e c:/intelfpga_lite/23.1std/nios2eds/bin/gnu/h-x86_64-mingw32/bin/../lib/gcc/nios2-elf/12.3.1/../../../../../H-x86_64-mingw32/nios2-elf/lib\libc.a(libc_a-memmove.o)
 .comment       0x0000002d       0x2e c:/intelfpga_lite/23.1std/nios2eds/bin/gnu/h-x86_64-mingw32/bin/../lib/gcc/nios2-elf/12.3.1/../../../../../H-x86_64-mingw32/nios2-elf/lib\libc.a(libc_a-locale.o)
 .comment       0x0000002d       0x2e c:/intelfpga_lite/23.1std/nios2eds/bin/gnu/h-x86_64-mingw32/bin/../lib/gcc/nios2-elf/12.3.1/../../../../../H-x86_64-mingw32/nios2-elf/lib\libc.a(libc_a-localeconv.o)
 .comment       0x0000002d       0x2e c:/intelfpga_lite/23.1std/nios2eds/bin/gnu/h-x86_64-mingw32/bin/../lib/gcc/nios2-elf/12.3.1/../../../../../H-x86_64-mingw32/nios2-elf/lib\libc.a(libc_a-isattyr.o)
 .comment       0x0000002d       0x2e c:/intelfpga_lite/23.1std/nios2eds/bin/gnu/h-x86_64-mingw32/bin/../lib/gcc/nios2-elf/12.3.1/../../../../../H-x86_64-mingw32/nios2-elf/lib\libc.a(libc_a-sbrkr.o)
 .comment       0x0000002d       0x2e c:/intelfpga_lite/23.1std/nios2eds/bin/gnu/h-x86_64-mingw32/bin/../lib/gcc/nios2-elf/12.3.1/../../../../../H-x86_64-mingw32/nios2-elf/lib\libc.a(libc_a-dtoa.o)
 .comment       0x0000002d       0x2e c:/intelfpga_lite/23.1std/nios2eds/bin/gnu/h-x86_64-mingw32/bin/../lib/gcc/nios2-elf/12.3.1/../../../../../H-x86_64-mingw32/nios2-elf/lib\libc.a(libc_a-mbtowc_r.o)
 .comment       0x0000002d       0x2e c:/intelfpga_lite/23.1std/nios2eds/bin/gnu/h-x86_64-mingw32/bin/../lib/gcc/nios2-elf/12.3.1/../../../../../H-x86_64-mingw32/nios2-elf/lib\libc.a(libc_a-mprec.o)
 .comment       0x0000002d       0x2e c:/intelfpga_lite/23.1std/nios2eds/bin/gnu/h-x86_64-mingw32/bin/../lib/gcc/nios2-elf/12.3.1/../../../../../H-x86_64-mingw32/nios2-elf/lib\libc.a(libc_a-reallocr.o)
 .comment       0x0000002d       0x2e c:/intelfpga_lite/23.1std/nios2eds/bin/gnu/h-x86_64-mingw32/bin/../lib/gcc/nios2-elf/12.3.1/../../../../../H-x86_64-mingw32/nios2-elf/lib\libc.a(libc_a-wctomb_r.o)
 .comment       0x0000002d       0x2e c:/intelfpga_lite/23.1std/nios2eds/bin/gnu/h-x86_64-mingw32/bin/../lib/gcc/nios2-elf/12.3.1/../../../../../H-x86_64-mingw32/nios2-elf/lib\libc.a(libc_a-wcrtomb.o)
 .comment       0x0000002d       0x2e c:/intelfpga_lite/23.1std/nios2eds/bin/gnu/h-x86_64-mingw32/bin/../lib/gcc/nios2-elf/12.3.1/../../../../../H-x86_64-mingw32/nios2-elf/lib\libc.a(libc_a-ctype_.o)
 .comment       0x0000002d       0x2e c:/intelfpga_lite/23.1std/nios2eds/bin/gnu/h-x86_64-mingw32/bin/../lib/gcc/nios2-elf/12.3.1/../../../../../H-x86_64-mingw32/nios2-elf/lib\libc.a(libc_a-strcmp.o)
 .comment       0x0000002d       0x2e c:/intelfpga_lite/23.1std/nios2eds/bin/gnu/h-x86_64-mingw32/bin/../lib/gcc/nios2-elf/12.3.1/../../../../../H-x86_64-mingw32/nios2-elf/lib\libc.a(libc_a-assert.o)
 .comment       0x0000002d       0x2e c:/intelfpga_lite/23.1std/nios2eds/bin/gnu/h-x86_64-mingw32/bin/../lib/gcc/nios2-elf/12.3.1/../../../../../H-x86_64-mingw32/nios2-elf/lib\libc.a(libc_a-callocr.o)
 .comment       0x0000002d       0x2e c:/intelfpga_lite/23.1std/nios2eds/bin/gnu/h-x86_64-mingw32/bin/../lib/gcc/nios2-elf/12.3.1/../../../../../H-x86_64-mingw32/nios2-elf/lib\libc.a(libc_a-fiprintf.o)
 .comment       0x0000002d       0x2e c:/intelfpga_lite/23.1std/nios2eds/bin/gnu/h-x86_64-mingw32/bin/../lib/gcc/nios2-elf/12.3.1/../../../../../H-x86_64-mingw32/nios2-elf/lib\libc.a(libc_a-vfiprintfr_1.o)
 .comment       0x0000002d       0x2e c:/intelfpga_lite/23.1std/nios2eds/bin/gnu/h-x86_64-mingw32/bin/../lib/gcc/nios2-elf/12.3.1/../../../../../H-x86_64-mingw32/nios2-elf/lib\libc.a(libc_a-abort.o)
 .comment       0x0000002d       0x2e c:/intelfpga_lite/23.1std/nios2eds/bin/gnu/h-x86_64-mingw32/bin/../lib/gcc/nios2-elf/12.3.1/../../../../../H-x86_64-mingw32/nios2-elf/lib\libc.a(libc_a-signal.o)
 .comment       0x0000002d       0x2e c:/intelfpga_lite/23.1std/nios2eds/bin/gnu/h-x86_64-mingw32/bin/../lib/gcc/nios2-elf/12.3.1/../../../../../H-x86_64-mingw32/nios2-elf/lib\libc.a(libc_a-signalr.o)
 .comment       0x0000002d       0x2e c:/intelfpga_lite/23.1std/nios2eds/bin/gnu/h-x86_64-mingw32/bin/../lib/gcc/nios2-elf/12.3.1\libgcc.a(_udivdi3.o)
 .comment       0x0000002d       0x2e c:/intelfpga_lite/23.1std/nios2eds/bin/gnu/h-x86_64-mingw32/bin/../lib/gcc/nios2-elf/12.3.1\libgcc.a(_umoddi3.o)
 .comment       0x0000002d       0x2e c:/intelfpga_lite/23.1std/nios2eds/bin/gnu/h-x86_64-mingw32/bin/../lib/gcc/nios2-elf/12.3.1\libgcc.a(floatunsidf.o)
 .comment       0x0000002d       0x2e c:/Users/pedro/OneDrive/Documentos/CNN-paralel/Software/c0_bsp/\libhal_bsp.a(alt_close.o)
 .comment       0x0000002d       0x2e c:/Users/pedro/OneDrive/Documentos/CNN-paralel/Software/c0_bsp/\libhal_bsp.a(alt_dev.o)
 .comment       0x0000002d       0x2e c:/Users/pedro/OneDrive/Documentos/CNN-paralel/Software/c0_bsp/\libhal_bsp.a(alt_errno.o)
 .comment       0x0000002d       0x2e c:/Users/pedro/OneDrive/Documentos/CNN-paralel/Software/c0_bsp/\libhal_bsp.a(alt_fstat.o)
 .comment       0x0000002d       0x2e c:/Users/pedro/OneDrive/Documentos/CNN-paralel/Software/c0_bsp/\libhal_bsp.a(alt_getpid.o)
 .comment       0x0000002d       0x2e c:/Users/pedro/OneDrive/Documentos/CNN-paralel/Software/c0_bsp/\libhal_bsp.a(alt_isatty.o)
 .comment       0x0000002d       0x2e c:/Users/pedro/OneDrive/Documentos/CNN-paralel/Software/c0_bsp/\libhal_bsp.a(alt_kill.o)
 .comment       0x0000002d       0x2e c:/Users/pedro/OneDrive/Documentos/CNN-paralel/Software/c0_bsp/\libhal_bsp.a(alt_load.o)
 .comment       0x0000002d       0x2e c:/Users/pedro/OneDrive/Documentos/CNN-paralel/Software/c0_bsp/\libhal_bsp.a(alt_lseek.o)
 .comment       0x0000002d       0x2e c:/Users/pedro/OneDrive/Documentos/CNN-paralel/Software/c0_bsp/\libhal_bsp.a(alt_main.o)
 .comment       0x0000002d       0x2e c:/Users/pedro/OneDrive/Documentos/CNN-paralel/Software/c0_bsp/\libhal_bsp.a(alt_malloc_lock.o)
 .comment       0x0000002d       0x2e c:/Users/pedro/OneDrive/Documentos/CNN-paralel/Software/c0_bsp/\libhal_bsp.a(alt_open.o)
 .comment       0x0000002d       0x2e c:/Users/pedro/OneDrive/Documentos/CNN-paralel/Software/c0_bsp/\libhal_bsp.a(alt_read.o)
 .comment       0x0000002d       0x2e c:/Users/pedro/OneDrive/Documentos/CNN-paralel/Software/c0_bsp/\libhal_bsp.a(alt_release_fd.o)
 .comment       0x0000002d       0x2e c:/Users/pedro/OneDrive/Documentos/CNN-paralel/Software/c0_bsp/\libhal_bsp.a(alt_sbrk.o)
 .comment       0x0000002d       0x2e c:/Users/pedro/OneDrive/Documentos/CNN-paralel/Software/c0_bsp/\libhal_bsp.a(alt_write.o)
 .comment       0x0000002d       0x2e c:/Users/pedro/OneDrive/Documentos/CNN-paralel/Software/c0_bsp/\libhal_bsp.a(alt_sys_init.o)
 .comment       0x0000002d       0x2e c:/Users/pedro/OneDrive/Documentos/CNN-paralel/Software/c0_bsp/\libhal_bsp.a(altera_avalon_jtag_uart_fd.o)
 .comment       0x0000002d       0x2e c:/Users/pedro/OneDrive/Documentos/CNN-paralel/Software/c0_bsp/\libhal_bsp.a(altera_avalon_jtag_uart_read.o)
 .comment       0x0000002d       0x2e c:/Users/pedro/OneDrive/Documentos/CNN-paralel/Software/c0_bsp/\libhal_bsp.a(altera_avalon_jtag_uart_write.o)
 .comment       0x0000002d       0x2e c:/Users/pedro/OneDrive/Documentos/CNN-paralel/Software/c0_bsp/\libhal_bsp.a(altera_hostfs.o)
 .comment       0x0000002d       0x2e c:/Users/pedro/OneDrive/Documentos/CNN-paralel/Software/c0_bsp/\libhal_bsp.a(alt_dcache_flush_all.o)
 .comment       0x0000002d       0x2e c:/Users/pedro/OneDrive/Documentos/CNN-paralel/Software/c0_bsp/\libhal_bsp.a(alt_dev_llist_insert.o)
 .comment       0x0000002d       0x2e c:/Users/pedro/OneDrive/Documentos/CNN-paralel/Software/c0_bsp/\libhal_bsp.a(alt_find_dev.o)
 .comment       0x0000002d       0x2e c:/Users/pedro/OneDrive/Documentos/CNN-paralel/Software/c0_bsp/\libhal_bsp.a(alt_find_file.o)
 .comment       0x0000002d       0x2e c:/Users/pedro/OneDrive/Documentos/CNN-paralel/Software/c0_bsp/\libhal_bsp.a(alt_fs_reg.o)
 .comment       0x0000002d       0x2e c:/Users/pedro/OneDrive/Documentos/CNN-paralel/Software/c0_bsp/\libhal_bsp.a(alt_get_fd.o)
 .comment       0x0000002d       0x2e c:/Users/pedro/OneDrive/Documentos/CNN-paralel/Software/c0_bsp/\libhal_bsp.a(alt_icache_flush_all.o)
 .comment       0x0000002d       0x2e c:/Users/pedro/OneDrive/Documentos/CNN-paralel/Software/c0_bsp/\libhal_bsp.a(alt_io_redirect.o)
 .comment       0x0000002d       0x2e c:/Users/pedro/OneDrive/Documentos/CNN-paralel/Software/c0_bsp/\libhal_bsp.a(altera_nios2_gen2_irq.o)
 .comment       0x0000002d       0x2e c:/intelfpga_lite/23.1std/nios2eds/bin/gnu/h-x86_64-mingw32/bin/../lib/gcc/nios2-elf/12.3.1/../../../../../H-x86_64-mingw32/nios2-elf/lib\libc.a(libc_a-memcmp.o)

.debug
 *(.debug)

.line
 *(.line)

.debug_srcinfo
 *(.debug_srcinfo)

.debug_sfnames
 *(.debug_sfnames)

.debug_aranges  0x00000000     0x1228
 *(.debug_aranges)
 .debug_aranges
                0x00000000       0x28 c:/Users/pedro/OneDrive/Documentos/CNN-paralel/Software/c0_bsp//obj/HAL/src/crt0.o
 .debug_aranges
                0x00000028       0x20 obj/default/image.o
 .debug_aranges
                0x00000048       0x28 obj/default/main.o
 .debug_aranges
                0x00000070       0x20 c:/intelfpga_lite/23.1std/nios2eds/bin/gnu/h-x86_64-mingw32/bin/../lib/gcc/nios2-elf/12.3.1/../../../../../H-x86_64-mingw32/nios2-elf/lib\libm.a(libm_a-w_exp.o)
 .debug_aranges
                0x00000090       0x20 c:/intelfpga_lite/23.1std/nios2eds/bin/gnu/h-x86_64-mingw32/bin/../lib/gcc/nios2-elf/12.3.1/../../../../../H-x86_64-mingw32/nios2-elf/lib\libm.a(libm_a-s_finite.o)
 .debug_aranges
                0x000000b0       0x20 c:/intelfpga_lite/23.1std/nios2eds/bin/gnu/h-x86_64-mingw32/bin/../lib/gcc/nios2-elf/12.3.1/../../../../../H-x86_64-mingw32/nios2-elf/lib\libm.a(libm_a-e_exp.o)
 .debug_aranges
                0x000000d0       0x60 c:/intelfpga_lite/23.1std/nios2eds/bin/gnu/h-x86_64-mingw32/bin/../lib/gcc/nios2-elf/12.3.1/../../../../../H-x86_64-mingw32/nios2-elf/lib\libm.a(libm_a-math_err.o)
 .debug_aranges
                0x00000130       0x20 c:/intelfpga_lite/23.1std/nios2eds/bin/gnu/h-x86_64-mingw32/bin/../lib/gcc/nios2-elf/12.3.1\libgcc.a(lib2-divmod.o)
 .debug_aranges
                0x00000150       0x20 c:/intelfpga_lite/23.1std/nios2eds/bin/gnu/h-x86_64-mingw32/bin/../lib/gcc/nios2-elf/12.3.1\libgcc.a(addsf3.o)
 .debug_aranges
                0x00000170       0x20 c:/intelfpga_lite/23.1std/nios2eds/bin/gnu/h-x86_64-mingw32/bin/../lib/gcc/nios2-elf/12.3.1\libgcc.a(divsf3.o)
 .debug_aranges
                0x00000190       0x20 c:/intelfpga_lite/23.1std/nios2eds/bin/gnu/h-x86_64-mingw32/bin/../lib/gcc/nios2-elf/12.3.1\libgcc.a(gesf2.o)
 .debug_aranges
                0x000001b0       0x20 c:/intelfpga_lite/23.1std/nios2eds/bin/gnu/h-x86_64-mingw32/bin/../lib/gcc/nios2-elf/12.3.1\libgcc.a(lesf2.o)
 .debug_aranges
                0x000001d0       0x20 c:/intelfpga_lite/23.1std/nios2eds/bin/gnu/h-x86_64-mingw32/bin/../lib/gcc/nios2-elf/12.3.1\libgcc.a(mulsf3.o)
 .debug_aranges
                0x000001f0       0x20 c:/intelfpga_lite/23.1std/nios2eds/bin/gnu/h-x86_64-mingw32/bin/../lib/gcc/nios2-elf/12.3.1\libgcc.a(subsf3.o)
 .debug_aranges
                0x00000210       0x20 c:/intelfpga_lite/23.1std/nios2eds/bin/gnu/h-x86_64-mingw32/bin/../lib/gcc/nios2-elf/12.3.1\libgcc.a(floatunsisf.o)
 .debug_aranges
                0x00000230       0x20 c:/intelfpga_lite/23.1std/nios2eds/bin/gnu/h-x86_64-mingw32/bin/../lib/gcc/nios2-elf/12.3.1\libgcc.a(adddf3.o)
 .debug_aranges
                0x00000250       0x20 c:/intelfpga_lite/23.1std/nios2eds/bin/gnu/h-x86_64-mingw32/bin/../lib/gcc/nios2-elf/12.3.1\libgcc.a(divdf3.o)
 .debug_aranges
                0x00000270       0x20 c:/intelfpga_lite/23.1std/nios2eds/bin/gnu/h-x86_64-mingw32/bin/../lib/gcc/nios2-elf/12.3.1\libgcc.a(eqdf2.o)
 .debug_aranges
                0x00000290       0x20 c:/intelfpga_lite/23.1std/nios2eds/bin/gnu/h-x86_64-mingw32/bin/../lib/gcc/nios2-elf/12.3.1\libgcc.a(gedf2.o)
 .debug_aranges
                0x000002b0       0x20 c:/intelfpga_lite/23.1std/nios2eds/bin/gnu/h-x86_64-mingw32/bin/../lib/gcc/nios2-elf/12.3.1\libgcc.a(ledf2.o)
 .debug_aranges
                0x000002d0       0x20 c:/intelfpga_lite/23.1std/nios2eds/bin/gnu/h-x86_64-mingw32/bin/../lib/gcc/nios2-elf/12.3.1\libgcc.a(muldf3.o)
 .debug_aranges
                0x000002f0       0x20 c:/intelfpga_lite/23.1std/nios2eds/bin/gnu/h-x86_64-mingw32/bin/../lib/gcc/nios2-elf/12.3.1\libgcc.a(subdf3.o)
 .debug_aranges
                0x00000310       0x20 c:/intelfpga_lite/23.1std/nios2eds/bin/gnu/h-x86_64-mingw32/bin/../lib/gcc/nios2-elf/12.3.1\libgcc.a(unorddf2.o)
 .debug_aranges
                0x00000330       0x20 c:/intelfpga_lite/23.1std/nios2eds/bin/gnu/h-x86_64-mingw32/bin/../lib/gcc/nios2-elf/12.3.1\libgcc.a(fixdfsi.o)
 .debug_aranges
                0x00000350       0x20 c:/intelfpga_lite/23.1std/nios2eds/bin/gnu/h-x86_64-mingw32/bin/../lib/gcc/nios2-elf/12.3.1\libgcc.a(floatsidf.o)
 .debug_aranges
                0x00000370       0x20 c:/intelfpga_lite/23.1std/nios2eds/bin/gnu/h-x86_64-mingw32/bin/../lib/gcc/nios2-elf/12.3.1\libgcc.a(extendsfdf2.o)
 .debug_aranges
                0x00000390       0x20 c:/intelfpga_lite/23.1std/nios2eds/bin/gnu/h-x86_64-mingw32/bin/../lib/gcc/nios2-elf/12.3.1\libgcc.a(truncdfsf2.o)
 .debug_aranges
                0x000003b0       0x20 c:/intelfpga_lite/23.1std/nios2eds/bin/gnu/h-x86_64-mingw32/bin/../lib/gcc/nios2-elf/12.3.1\libgcc.a(_clzsi2.o)
 .debug_aranges
                0x000003d0       0x18 c:/intelfpga_lite/23.1std/nios2eds/bin/gnu/h-x86_64-mingw32/bin/../lib/gcc/nios2-elf/12.3.1\libgcc.a(_clz.o)
 .debug_aranges
                0x000003e8       0x20 c:/intelfpga_lite/23.1std/nios2eds/bin/gnu/h-x86_64-mingw32/bin/../lib/gcc/nios2-elf/12.3.1/../../../../../H-x86_64-mingw32/nios2-elf/lib\libc.a(libc_a-exit.o)
 .debug_aranges
                0x00000408       0x28 c:/intelfpga_lite/23.1std/nios2eds/bin/gnu/h-x86_64-mingw32/bin/../lib/gcc/nios2-elf/12.3.1/../../../../../H-x86_64-mingw32/nios2-elf/lib\libc.a(libc_a-fclose.o)
 .debug_aranges
                0x00000430       0x30 c:/intelfpga_lite/23.1std/nios2eds/bin/gnu/h-x86_64-mingw32/bin/../lib/gcc/nios2-elf/12.3.1/../../../../../H-x86_64-mingw32/nios2-elf/lib\libc.a(libc_a-fflush.o)
 .debug_aranges
                0x00000460       0x70 c:/intelfpga_lite/23.1std/nios2eds/bin/gnu/h-x86_64-mingw32/bin/../lib/gcc/nios2-elf/12.3.1/../../../../../H-x86_64-mingw32/nios2-elf/lib\libc.a(libc_a-findfp.o)
 .debug_aranges
                0x000004d0       0x28 c:/intelfpga_lite/23.1std/nios2eds/bin/gnu/h-x86_64-mingw32/bin/../lib/gcc/nios2-elf/12.3.1/../../../../../H-x86_64-mingw32/nios2-elf/lib\libc.a(libc_a-fopen.o)
 .debug_aranges
                0x000004f8       0x28 c:/intelfpga_lite/23.1std/nios2eds/bin/gnu/h-x86_64-mingw32/bin/../lib/gcc/nios2-elf/12.3.1/../../../../../H-x86_64-mingw32/nios2-elf/lib\libc.a(libc_a-fread.o)
 .debug_aranges
                0x00000520       0x28 c:/intelfpga_lite/23.1std/nios2eds/bin/gnu/h-x86_64-mingw32/bin/../lib/gcc/nios2-elf/12.3.1/../../../../../H-x86_64-mingw32/nios2-elf/lib\libc.a(libc_a-fseek.o)
 .debug_aranges
                0x00000548       0x20 c:/intelfpga_lite/23.1std/nios2eds/bin/gnu/h-x86_64-mingw32/bin/../lib/gcc/nios2-elf/12.3.1/../../../../../H-x86_64-mingw32/nios2-elf/lib\libc.a(libc_a-fwalk.o)
 .debug_aranges
                0x00000568       0x28 c:/intelfpga_lite/23.1std/nios2eds/bin/gnu/h-x86_64-mingw32/bin/../lib/gcc/nios2-elf/12.3.1/../../../../../H-x86_64-mingw32/nios2-elf/lib\libc.a(libc_a-printf.o)
 .debug_aranges
                0x00000590       0x28 c:/intelfpga_lite/23.1std/nios2eds/bin/gnu/h-x86_64-mingw32/bin/../lib/gcc/nios2-elf/12.3.1/../../../../../H-x86_64-mingw32/nios2-elf/lib\libc.a(libc_a-putchar.o)
 .debug_aranges
                0x000005b8       0x28 c:/intelfpga_lite/23.1std/nios2eds/bin/gnu/h-x86_64-mingw32/bin/../lib/gcc/nios2-elf/12.3.1/../../../../../H-x86_64-mingw32/nios2-elf/lib\libc.a(libc_a-puts.o)
 .debug_aranges
                0x000005e0       0x28 c:/intelfpga_lite/23.1std/nios2eds/bin/gnu/h-x86_64-mingw32/bin/../lib/gcc/nios2-elf/12.3.1/../../../../../H-x86_64-mingw32/nios2-elf/lib\libc.a(libc_a-refill.o)
 .debug_aranges
                0x00000608       0x40 c:/intelfpga_lite/23.1std/nios2eds/bin/gnu/h-x86_64-mingw32/bin/../lib/gcc/nios2-elf/12.3.1/../../../../../H-x86_64-mingw32/nios2-elf/lib\libc.a(libc_a-stdio.o)
 .debug_aranges
                0x00000648       0x28 c:/intelfpga_lite/23.1std/nios2eds/bin/gnu/h-x86_64-mingw32/bin/../lib/gcc/nios2-elf/12.3.1/../../../../../H-x86_64-mingw32/nios2-elf/lib\libc.a(libc_a-fseeko.o)
 .debug_aranges
                0x00000670       0x20 c:/intelfpga_lite/23.1std/nios2eds/bin/gnu/h-x86_64-mingw32/bin/../lib/gcc/nios2-elf/12.3.1/../../../../../H-x86_64-mingw32/nios2-elf/lib\libc.a(libc_a-memcpy.o)
 .debug_aranges
                0x00000690       0x20 c:/intelfpga_lite/23.1std/nios2eds/bin/gnu/h-x86_64-mingw32/bin/../lib/gcc/nios2-elf/12.3.1/../../../../../H-x86_64-mingw32/nios2-elf/lib\libc.a(libc_a-memset.o)
 .debug_aranges
                0x000006b0       0x20 c:/intelfpga_lite/23.1std/nios2eds/bin/gnu/h-x86_64-mingw32/bin/../lib/gcc/nios2-elf/12.3.1/../../../../../H-x86_64-mingw32/nios2-elf/lib\libc.a(libc_a-strlen.o)
 .debug_aranges
                0x000006d0       0x20 c:/intelfpga_lite/23.1std/nios2eds/bin/gnu/h-x86_64-mingw32/bin/../lib/gcc/nios2-elf/12.3.1/../../../../../H-x86_64-mingw32/nios2-elf/lib\libc.a(libc_a-closer.o)
 .debug_aranges
                0x000006f0       0x20 c:/intelfpga_lite/23.1std/nios2eds/bin/gnu/h-x86_64-mingw32/bin/../lib/gcc/nios2-elf/12.3.1/../../../../../H-x86_64-mingw32/nios2-elf/lib\libc.a(libc_a-reent.o)
 .debug_aranges
                0x00000710       0x18 c:/intelfpga_lite/23.1std/nios2eds/bin/gnu/h-x86_64-mingw32/bin/../lib/gcc/nios2-elf/12.3.1/../../../../../H-x86_64-mingw32/nios2-elf/lib\libc.a(libc_a-impure.o)
 .debug_aranges
                0x00000728       0x20 c:/intelfpga_lite/23.1std/nios2eds/bin/gnu/h-x86_64-mingw32/bin/../lib/gcc/nios2-elf/12.3.1/../../../../../H-x86_64-mingw32/nios2-elf/lib\libc.a(libc_a-fstatr.o)
 .debug_aranges
                0x00000748       0x20 c:/intelfpga_lite/23.1std/nios2eds/bin/gnu/h-x86_64-mingw32/bin/../lib/gcc/nios2-elf/12.3.1/../../../../../H-x86_64-mingw32/nios2-elf/lib\libc.a(libc_a-lseekr.o)
 .debug_aranges
                0x00000768       0x20 c:/intelfpga_lite/23.1std/nios2eds/bin/gnu/h-x86_64-mingw32/bin/../lib/gcc/nios2-elf/12.3.1/../../../../../H-x86_64-mingw32/nios2-elf/lib\libc.a(libc_a-openr.o)
 .debug_aranges
                0x00000788       0x20 c:/intelfpga_lite/23.1std/nios2eds/bin/gnu/h-x86_64-mingw32/bin/../lib/gcc/nios2-elf/12.3.1/../../../../../H-x86_64-mingw32/nios2-elf/lib\libc.a(libc_a-readr.o)
 .debug_aranges
                0x000007a8       0x20 c:/intelfpga_lite/23.1std/nios2eds/bin/gnu/h-x86_64-mingw32/bin/../lib/gcc/nios2-elf/12.3.1/../../../../../H-x86_64-mingw32/nios2-elf/lib\libc.a(libc_a-writer.o)
 .debug_aranges
                0x000007c8       0x20 c:/intelfpga_lite/23.1std/nios2eds/bin/gnu/h-x86_64-mingw32/bin/../lib/gcc/nios2-elf/12.3.1/../../../../../H-x86_64-mingw32/nios2-elf/lib\libc.a(libc_a-errno.o)
 .debug_aranges
                0x000007e8       0x20 c:/intelfpga_lite/23.1std/nios2eds/bin/gnu/h-x86_64-mingw32/bin/../lib/gcc/nios2-elf/12.3.1/../../../../../H-x86_64-mingw32/nios2-elf/lib\libc.a(libc_a-__call_atexit.o)
 .debug_aranges
                0x00000808       0x28 c:/intelfpga_lite/23.1std/nios2eds/bin/gnu/h-x86_64-mingw32/bin/../lib/gcc/nios2-elf/12.3.1/../../../../../H-x86_64-mingw32/nios2-elf/lib\libc.a(libc_a-freer.o)
 .debug_aranges
                0x00000830       0x20 c:/intelfpga_lite/23.1std/nios2eds/bin/gnu/h-x86_64-mingw32/bin/../lib/gcc/nios2-elf/12.3.1/../../../../../H-x86_64-mingw32/nios2-elf/lib\libc.a(libc_a-mallocr.o)
 .debug_aranges
                0x00000850       0x30 c:/intelfpga_lite/23.1std/nios2eds/bin/gnu/h-x86_64-mingw32/bin/../lib/gcc/nios2-elf/12.3.1/../../../../../H-x86_64-mingw32/nios2-elf/lib\libc.a(libc_a-vfprintf.o)
 .debug_aranges
                0x00000880       0x40 c:/intelfpga_lite/23.1std/nios2eds/bin/gnu/h-x86_64-mingw32/bin/../lib/gcc/nios2-elf/12.3.1/../../../../../H-x86_64-mingw32/nios2-elf/lib\libc.a(libc_a-vfiprintf.o)
 .debug_aranges
                0x000008c0       0x20 c:/intelfpga_lite/23.1std/nios2eds/bin/gnu/h-x86_64-mingw32/bin/../lib/gcc/nios2-elf/12.3.1/../../../../../H-x86_64-mingw32/nios2-elf/lib\libc.a(libc_a-flags.o)
 .debug_aranges
                0x000008e0       0x20 c:/intelfpga_lite/23.1std/nios2eds/bin/gnu/h-x86_64-mingw32/bin/../lib/gcc/nios2-elf/12.3.1/../../../../../H-x86_64-mingw32/nios2-elf/lib\libc.a(libc_a-fvwrite.o)
 .debug_aranges
                0x00000900       0x28 c:/intelfpga_lite/23.1std/nios2eds/bin/gnu/h-x86_64-mingw32/bin/../lib/gcc/nios2-elf/12.3.1/../../../../../H-x86_64-mingw32/nios2-elf/lib\libc.a(libc_a-makebuf.o)
 .debug_aranges
                0x00000928       0x28 c:/intelfpga_lite/23.1std/nios2eds/bin/gnu/h-x86_64-mingw32/bin/../lib/gcc/nios2-elf/12.3.1/../../../../../H-x86_64-mingw32/nios2-elf/lib\libc.a(libc_a-putc.o)
 .debug_aranges
                0x00000950       0x28 c:/intelfpga_lite/23.1std/nios2eds/bin/gnu/h-x86_64-mingw32/bin/../lib/gcc/nios2-elf/12.3.1/../../../../../H-x86_64-mingw32/nios2-elf/lib\libc.a(libc_a-wbuf.o)
 .debug_aranges
                0x00000978       0x20 c:/intelfpga_lite/23.1std/nios2eds/bin/gnu/h-x86_64-mingw32/bin/../lib/gcc/nios2-elf/12.3.1/../../../../../H-x86_64-mingw32/nios2-elf/lib\libc.a(libc_a-wsetup.o)
 .debug_aranges
                0x00000998       0x30 c:/intelfpga_lite/23.1std/nios2eds/bin/gnu/h-x86_64-mingw32/bin/../lib/gcc/nios2-elf/12.3.1/../../../../../H-x86_64-mingw32/nios2-elf/lib\libc.a(libc_a-fputwc.o)
 .debug_aranges
                0x000009c8       0x20 c:/intelfpga_lite/23.1std/nios2eds/bin/gnu/h-x86_64-mingw32/bin/../lib/gcc/nios2-elf/12.3.1/../../../../../H-x86_64-mingw32/nios2-elf/lib\libc.a(libc_a-memchr.o)
 .debug_aranges
                0x000009e8       0x20 c:/intelfpga_lite/23.1std/nios2eds/bin/gnu/h-x86_64-mingw32/bin/../lib/gcc/nios2-elf/12.3.1/../../../../../H-x86_64-mingw32/nios2-elf/lib\libc.a(libc_a-memmove.o)
 .debug_aranges
                0x00000a08       0x30 c:/intelfpga_lite/23.1std/nios2eds/bin/gnu/h-x86_64-mingw32/bin/../lib/gcc/nios2-elf/12.3.1/../../../../../H-x86_64-mingw32/nios2-elf/lib\libc.a(libc_a-locale.o)
 .debug_aranges
                0x00000a38       0x30 c:/intelfpga_lite/23.1std/nios2eds/bin/gnu/h-x86_64-mingw32/bin/../lib/gcc/nios2-elf/12.3.1/../../../../../H-x86_64-mingw32/nios2-elf/lib\libc.a(libc_a-localeconv.o)
 .debug_aranges
                0x00000a68       0x20 c:/intelfpga_lite/23.1std/nios2eds/bin/gnu/h-x86_64-mingw32/bin/../lib/gcc/nios2-elf/12.3.1/../../../../../H-x86_64-mingw32/nios2-elf/lib\libc.a(libc_a-isattyr.o)
 .debug_aranges
                0x00000a88       0x20 c:/intelfpga_lite/23.1std/nios2eds/bin/gnu/h-x86_64-mingw32/bin/../lib/gcc/nios2-elf/12.3.1/../../../../../H-x86_64-mingw32/nios2-elf/lib\libc.a(libc_a-sbrkr.o)
 .debug_aranges
                0x00000aa8       0x28 c:/intelfpga_lite/23.1std/nios2eds/bin/gnu/h-x86_64-mingw32/bin/../lib/gcc/nios2-elf/12.3.1/../../../../../H-x86_64-mingw32/nios2-elf/lib\libc.a(libc_a-dtoa.o)
 .debug_aranges
                0x00000ad0       0x28 c:/intelfpga_lite/23.1std/nios2eds/bin/gnu/h-x86_64-mingw32/bin/../lib/gcc/nios2-elf/12.3.1/../../../../../H-x86_64-mingw32/nios2-elf/lib\libc.a(libc_a-mbtowc_r.o)
 .debug_aranges
                0x00000af8       0xb0 c:/intelfpga_lite/23.1std/nios2eds/bin/gnu/h-x86_64-mingw32/bin/../lib/gcc/nios2-elf/12.3.1/../../../../../H-x86_64-mingw32/nios2-elf/lib\libc.a(libc_a-mprec.o)
 .debug_aranges
                0x00000ba8       0x20 c:/intelfpga_lite/23.1std/nios2eds/bin/gnu/h-x86_64-mingw32/bin/../lib/gcc/nios2-elf/12.3.1/../../../../../H-x86_64-mingw32/nios2-elf/lib\libc.a(libc_a-reallocr.o)
 .debug_aranges
                0x00000bc8       0x28 c:/intelfpga_lite/23.1std/nios2eds/bin/gnu/h-x86_64-mingw32/bin/../lib/gcc/nios2-elf/12.3.1/../../../../../H-x86_64-mingw32/nios2-elf/lib\libc.a(libc_a-wctomb_r.o)
 .debug_aranges
                0x00000bf0       0x28 c:/intelfpga_lite/23.1std/nios2eds/bin/gnu/h-x86_64-mingw32/bin/../lib/gcc/nios2-elf/12.3.1/../../../../../H-x86_64-mingw32/nios2-elf/lib\libc.a(libc_a-wcrtomb.o)
 .debug_aranges
                0x00000c18       0x18 c:/intelfpga_lite/23.1std/nios2eds/bin/gnu/h-x86_64-mingw32/bin/../lib/gcc/nios2-elf/12.3.1/../../../../../H-x86_64-mingw32/nios2-elf/lib\libc.a(libc_a-ctype_.o)
 .debug_aranges
                0x00000c30       0x20 c:/intelfpga_lite/23.1std/nios2eds/bin/gnu/h-x86_64-mingw32/bin/../lib/gcc/nios2-elf/12.3.1/../../../../../H-x86_64-mingw32/nios2-elf/lib\libc.a(libc_a-strcmp.o)
 .debug_aranges
                0x00000c50       0x28 c:/intelfpga_lite/23.1std/nios2eds/bin/gnu/h-x86_64-mingw32/bin/../lib/gcc/nios2-elf/12.3.1/../../../../../H-x86_64-mingw32/nios2-elf/lib\libc.a(libc_a-assert.o)
 .debug_aranges
                0x00000c78       0x20 c:/intelfpga_lite/23.1std/nios2eds/bin/gnu/h-x86_64-mingw32/bin/../lib/gcc/nios2-elf/12.3.1/../../../../../H-x86_64-mingw32/nios2-elf/lib\libc.a(libc_a-callocr.o)
 .debug_aranges
                0x00000c98       0x28 c:/intelfpga_lite/23.1std/nios2eds/bin/gnu/h-x86_64-mingw32/bin/../lib/gcc/nios2-elf/12.3.1/../../../../../H-x86_64-mingw32/nios2-elf/lib\libc.a(libc_a-fiprintf.o)
 .debug_aranges
                0x00000cc0       0x20 c:/intelfpga_lite/23.1std/nios2eds/bin/gnu/h-x86_64-mingw32/bin/../lib/gcc/nios2-elf/12.3.1/../../../../../H-x86_64-mingw32/nios2-elf/lib\libc.a(libc_a-vfiprintfr_1.o)
 .debug_aranges
                0x00000ce0       0x20 c:/intelfpga_lite/23.1std/nios2eds/bin/gnu/h-x86_64-mingw32/bin/../lib/gcc/nios2-elf/12.3.1/../../../../../H-x86_64-mingw32/nios2-elf/lib\libc.a(libc_a-abort.o)
 .debug_aranges
                0x00000d00       0x58 c:/intelfpga_lite/23.1std/nios2eds/bin/gnu/h-x86_64-mingw32/bin/../lib/gcc/nios2-elf/12.3.1/../../../../../H-x86_64-mingw32/nios2-elf/lib\libc.a(libc_a-signal.o)
 .debug_aranges
                0x00000d58       0x28 c:/intelfpga_lite/23.1std/nios2eds/bin/gnu/h-x86_64-mingw32/bin/../lib/gcc/nios2-elf/12.3.1/../../../../../H-x86_64-mingw32/nios2-elf/lib\libc.a(libc_a-signalr.o)
 .debug_aranges
                0x00000d80       0x20 c:/intelfpga_lite/23.1std/nios2eds/bin/gnu/h-x86_64-mingw32/bin/../lib/gcc/nios2-elf/12.3.1\libgcc.a(_udivdi3.o)
 .debug_aranges
                0x00000da0       0x20 c:/intelfpga_lite/23.1std/nios2eds/bin/gnu/h-x86_64-mingw32/bin/../lib/gcc/nios2-elf/12.3.1\libgcc.a(_umoddi3.o)
 .debug_aranges
                0x00000dc0       0x20 c:/intelfpga_lite/23.1std/nios2eds/bin/gnu/h-x86_64-mingw32/bin/../lib/gcc/nios2-elf/12.3.1\libgcc.a(floatunsidf.o)
 .debug_aranges
                0x00000de0       0x20 c:/Users/pedro/OneDrive/Documentos/CNN-paralel/Software/c0_bsp/\libhal_bsp.a(alt_close.o)
 .debug_aranges
                0x00000e00       0x20 c:/Users/pedro/OneDrive/Documentos/CNN-paralel/Software/c0_bsp/\libhal_bsp.a(alt_dev.o)
 .debug_aranges
                0x00000e20       0x18 c:/Users/pedro/OneDrive/Documentos/CNN-paralel/Software/c0_bsp/\libhal_bsp.a(alt_errno.o)
 .debug_aranges
                0x00000e38       0x20 c:/Users/pedro/OneDrive/Documentos/CNN-paralel/Software/c0_bsp/\libhal_bsp.a(alt_fstat.o)
 .debug_aranges
                0x00000e58       0x20 c:/Users/pedro/OneDrive/Documentos/CNN-paralel/Software/c0_bsp/\libhal_bsp.a(alt_getpid.o)
 .debug_aranges
                0x00000e78       0x20 c:/Users/pedro/OneDrive/Documentos/CNN-paralel/Software/c0_bsp/\libhal_bsp.a(alt_isatty.o)
 .debug_aranges
                0x00000e98       0x28 c:/Users/pedro/OneDrive/Documentos/CNN-paralel/Software/c0_bsp/\libhal_bsp.a(alt_kill.o)
 .debug_aranges
                0x00000ec0       0x28 c:/Users/pedro/OneDrive/Documentos/CNN-paralel/Software/c0_bsp/\libhal_bsp.a(alt_load.o)
 .debug_aranges
                0x00000ee8       0x20 c:/Users/pedro/OneDrive/Documentos/CNN-paralel/Software/c0_bsp/\libhal_bsp.a(alt_lseek.o)
 .debug_aranges
                0x00000f08       0x20 c:/Users/pedro/OneDrive/Documentos/CNN-paralel/Software/c0_bsp/\libhal_bsp.a(alt_main.o)
 .debug_aranges
                0x00000f28       0x28 c:/Users/pedro/OneDrive/Documentos/CNN-paralel/Software/c0_bsp/\libhal_bsp.a(alt_malloc_lock.o)
 .debug_aranges
                0x00000f50       0x20 c:/Users/pedro/OneDrive/Documentos/CNN-paralel/Software/c0_bsp/\libhal_bsp.a(alt_open.o)
 .debug_aranges
                0x00000f70       0x28 c:/Users/pedro/OneDrive/Documentos/CNN-paralel/Software/c0_bsp/\libhal_bsp.a(alt_read.o)
 .debug_aranges
                0x00000f98       0x20 c:/Users/pedro/OneDrive/Documentos/CNN-paralel/Software/c0_bsp/\libhal_bsp.a(alt_release_fd.o)
 .debug_aranges
                0x00000fb8       0x20 c:/Users/pedro/OneDrive/Documentos/CNN-paralel/Software/c0_bsp/\libhal_bsp.a(alt_sbrk.o)
 .debug_aranges
                0x00000fd8       0x28 c:/Users/pedro/OneDrive/Documentos/CNN-paralel/Software/c0_bsp/\libhal_bsp.a(alt_write.o)
 .debug_aranges
                0x00001000       0x28 c:/Users/pedro/OneDrive/Documentos/CNN-paralel/Software/c0_bsp/\libhal_bsp.a(alt_sys_init.o)
 .debug_aranges
                0x00001028       0x28 c:/Users/pedro/OneDrive/Documentos/CNN-paralel/Software/c0_bsp/\libhal_bsp.a(altera_avalon_jtag_uart_fd.o)
 .debug_aranges
                0x00001050       0x20 c:/Users/pedro/OneDrive/Documentos/CNN-paralel/Software/c0_bsp/\libhal_bsp.a(altera_avalon_jtag_uart_read.o)
 .debug_aranges
                0x00001070       0x20 c:/Users/pedro/OneDrive/Documentos/CNN-paralel/Software/c0_bsp/\libhal_bsp.a(altera_avalon_jtag_uart_write.o)
 .debug_aranges
                0x00001090       0x48 c:/Users/pedro/OneDrive/Documentos/CNN-paralel/Software/c0_bsp/\libhal_bsp.a(altera_hostfs.o)
 .debug_aranges
                0x000010d8       0x20 c:/Users/pedro/OneDrive/Documentos/CNN-paralel/Software/c0_bsp/\libhal_bsp.a(alt_dcache_flush_all.o)
 .debug_aranges
                0x000010f8       0x28 c:/Users/pedro/OneDrive/Documentos/CNN-paralel/Software/c0_bsp/\libhal_bsp.a(alt_dev_llist_insert.o)
 .debug_aranges
                0x00001120       0x20 c:/Users/pedro/OneDrive/Documentos/CNN-paralel/Software/c0_bsp/\libhal_bsp.a(alt_find_dev.o)
 .debug_aranges
                0x00001140       0x20 c:/Users/pedro/OneDrive/Documentos/CNN-paralel/Software/c0_bsp/\libhal_bsp.a(alt_find_file.o)
 .debug_aranges
                0x00001160       0x20 c:/Users/pedro/OneDrive/Documentos/CNN-paralel/Software/c0_bsp/\libhal_bsp.a(alt_fs_reg.o)
 .debug_aranges
                0x00001180       0x20 c:/Users/pedro/OneDrive/Documentos/CNN-paralel/Software/c0_bsp/\libhal_bsp.a(alt_get_fd.o)
 .debug_aranges
                0x000011a0       0x20 c:/Users/pedro/OneDrive/Documentos/CNN-paralel/Software/c0_bsp/\libhal_bsp.a(alt_icache_flush_all.o)
 .debug_aranges
                0x000011c0       0x28 c:/Users/pedro/OneDrive/Documentos/CNN-paralel/Software/c0_bsp/\libhal_bsp.a(alt_io_redirect.o)
 .debug_aranges
                0x000011e8       0x20 c:/Users/pedro/OneDrive/Documentos/CNN-paralel/Software/c0_bsp/\libhal_bsp.a(altera_nios2_gen2_irq.o)
 .debug_aranges
                0x00001208       0x20 c:/intelfpga_lite/23.1std/nios2eds/bin/gnu/h-x86_64-mingw32/bin/../lib/gcc/nios2-elf/12.3.1/../../../../../H-x86_64-mingw32/nios2-elf/lib\libc.a(libc_a-memcmp.o)

.debug_pubnames
 *(.debug_pubnames)

.debug_info     0x00000000    0x2ff91
 *(.debug_info .gnu.linkonce.wi.*)
 .debug_info    0x00000000       0x3f c:/Users/pedro/OneDrive/Documentos/CNN-paralel/Software/c0_bsp//obj/HAL/src/crt0.o
 .debug_info    0x0000003f      0x27d obj/default/image.o
 .debug_info    0x000002bc     0x155d obj/default/main.o
 .debug_info    0x00001819      0x18c c:/intelfpga_lite/23.1std/nios2eds/bin/gnu/h-x86_64-mingw32/bin/../lib/gcc/nios2-elf/12.3.1/../../../../../H-x86_64-mingw32/nios2-elf/lib\libm.a(libm_a-w_exp.o)
 .debug_info    0x000019a5      0x133 c:/intelfpga_lite/23.1std/nios2eds/bin/gnu/h-x86_64-mingw32/bin/../lib/gcc/nios2-elf/12.3.1/../../../../../H-x86_64-mingw32/nios2-elf/lib\libm.a(libm_a-s_finite.o)
 .debug_info    0x00001ad8      0x556 c:/intelfpga_lite/23.1std/nios2eds/bin/gnu/h-x86_64-mingw32/bin/../lib/gcc/nios2-elf/12.3.1/../../../../../H-x86_64-mingw32/nios2-elf/lib\libm.a(libm_a-e_exp.o)
 .debug_info    0x0000202e      0x3fe c:/intelfpga_lite/23.1std/nios2eds/bin/gnu/h-x86_64-mingw32/bin/../lib/gcc/nios2-elf/12.3.1/../../../../../H-x86_64-mingw32/nios2-elf/lib\libm.a(libm_a-math_err.o)
 .debug_info    0x0000242c      0x347 c:/intelfpga_lite/23.1std/nios2eds/bin/gnu/h-x86_64-mingw32/bin/../lib/gcc/nios2-elf/12.3.1\libgcc.a(lib2-divmod.o)
 .debug_info    0x00002773      0x328 c:/intelfpga_lite/23.1std/nios2eds/bin/gnu/h-x86_64-mingw32/bin/../lib/gcc/nios2-elf/12.3.1\libgcc.a(addsf3.o)
 .debug_info    0x00002a9b      0x33e c:/intelfpga_lite/23.1std/nios2eds/bin/gnu/h-x86_64-mingw32/bin/../lib/gcc/nios2-elf/12.3.1\libgcc.a(divsf3.o)
 .debug_info    0x00002dd9      0x225 c:/intelfpga_lite/23.1std/nios2eds/bin/gnu/h-x86_64-mingw32/bin/../lib/gcc/nios2-elf/12.3.1\libgcc.a(gesf2.o)
 .debug_info    0x00002ffe      0x225 c:/intelfpga_lite/23.1std/nios2eds/bin/gnu/h-x86_64-mingw32/bin/../lib/gcc/nios2-elf/12.3.1\libgcc.a(lesf2.o)
 .debug_info    0x00003223      0x3b3 c:/intelfpga_lite/23.1std/nios2eds/bin/gnu/h-x86_64-mingw32/bin/../lib/gcc/nios2-elf/12.3.1\libgcc.a(mulsf3.o)
 .debug_info    0x000035d6      0x328 c:/intelfpga_lite/23.1std/nios2eds/bin/gnu/h-x86_64-mingw32/bin/../lib/gcc/nios2-elf/12.3.1\libgcc.a(subsf3.o)
 .debug_info    0x000038fe      0x21f c:/intelfpga_lite/23.1std/nios2eds/bin/gnu/h-x86_64-mingw32/bin/../lib/gcc/nios2-elf/12.3.1\libgcc.a(floatunsisf.o)
 .debug_info    0x00003b1d      0x59d c:/intelfpga_lite/23.1std/nios2eds/bin/gnu/h-x86_64-mingw32/bin/../lib/gcc/nios2-elf/12.3.1\libgcc.a(adddf3.o)
 .debug_info    0x000040ba      0x7d3 c:/intelfpga_lite/23.1std/nios2eds/bin/gnu/h-x86_64-mingw32/bin/../lib/gcc/nios2-elf/12.3.1\libgcc.a(divdf3.o)
 .debug_info    0x0000488d      0x235 c:/intelfpga_lite/23.1std/nios2eds/bin/gnu/h-x86_64-mingw32/bin/../lib/gcc/nios2-elf/12.3.1\libgcc.a(eqdf2.o)
 .debug_info    0x00004ac2      0x256 c:/intelfpga_lite/23.1std/nios2eds/bin/gnu/h-x86_64-mingw32/bin/../lib/gcc/nios2-elf/12.3.1\libgcc.a(gedf2.o)
 .debug_info    0x00004d18      0x256 c:/intelfpga_lite/23.1std/nios2eds/bin/gnu/h-x86_64-mingw32/bin/../lib/gcc/nios2-elf/12.3.1\libgcc.a(ledf2.o)
 .debug_info    0x00004f6e      0x780 c:/intelfpga_lite/23.1std/nios2eds/bin/gnu/h-x86_64-mingw32/bin/../lib/gcc/nios2-elf/12.3.1\libgcc.a(muldf3.o)
 .debug_info    0x000056ee      0x59d c:/intelfpga_lite/23.1std/nios2eds/bin/gnu/h-x86_64-mingw32/bin/../lib/gcc/nios2-elf/12.3.1\libgcc.a(subdf3.o)
 .debug_info    0x00005c8b      0x216 c:/intelfpga_lite/23.1std/nios2eds/bin/gnu/h-x86_64-mingw32/bin/../lib/gcc/nios2-elf/12.3.1\libgcc.a(unorddf2.o)
 .debug_info    0x00005ea1      0x1d9 c:/intelfpga_lite/23.1std/nios2eds/bin/gnu/h-x86_64-mingw32/bin/../lib/gcc/nios2-elf/12.3.1\libgcc.a(fixdfsi.o)
 .debug_info    0x0000607a      0x289 c:/intelfpga_lite/23.1std/nios2eds/bin/gnu/h-x86_64-mingw32/bin/../lib/gcc/nios2-elf/12.3.1\libgcc.a(floatsidf.o)
 .debug_info    0x00006303      0x276 c:/intelfpga_lite/23.1std/nios2eds/bin/gnu/h-x86_64-mingw32/bin/../lib/gcc/nios2-elf/12.3.1\libgcc.a(extendsfdf2.o)
 .debug_info    0x00006579      0x286 c:/intelfpga_lite/23.1std/nios2eds/bin/gnu/h-x86_64-mingw32/bin/../lib/gcc/nios2-elf/12.3.1\libgcc.a(truncdfsf2.o)
 .debug_info    0x000067ff      0x139 c:/intelfpga_lite/23.1std/nios2eds/bin/gnu/h-x86_64-mingw32/bin/../lib/gcc/nios2-elf/12.3.1\libgcc.a(_clzsi2.o)
 .debug_info    0x00006938       0xc3 c:/intelfpga_lite/23.1std/nios2eds/bin/gnu/h-x86_64-mingw32/bin/../lib/gcc/nios2-elf/12.3.1\libgcc.a(_clz.o)
 .debug_info    0x000069fb      0x115 c:/intelfpga_lite/23.1std/nios2eds/bin/gnu/h-x86_64-mingw32/bin/../lib/gcc/nios2-elf/12.3.1/../../../../../H-x86_64-mingw32/nios2-elf/lib\libc.a(libc_a-exit.o)
 .debug_info    0x00006b10      0x8de c:/intelfpga_lite/23.1std/nios2eds/bin/gnu/h-x86_64-mingw32/bin/../lib/gcc/nios2-elf/12.3.1/../../../../../H-x86_64-mingw32/nios2-elf/lib\libc.a(libc_a-fclose.o)
 .debug_info    0x000073ee      0xa47 c:/intelfpga_lite/23.1std/nios2eds/bin/gnu/h-x86_64-mingw32/bin/../lib/gcc/nios2-elf/12.3.1/../../../../../H-x86_64-mingw32/nios2-elf/lib\libc.a(libc_a-fflush.o)
 .debug_info    0x00007e35      0xe98 c:/intelfpga_lite/23.1std/nios2eds/bin/gnu/h-x86_64-mingw32/bin/../lib/gcc/nios2-elf/12.3.1/../../../../../H-x86_64-mingw32/nios2-elf/lib\libc.a(libc_a-findfp.o)
 .debug_info    0x00008ccd      0x9a5 c:/intelfpga_lite/23.1std/nios2eds/bin/gnu/h-x86_64-mingw32/bin/../lib/gcc/nios2-elf/12.3.1/../../../../../H-x86_64-mingw32/nios2-elf/lib\libc.a(libc_a-fopen.o)
 .debug_info    0x00009672      0xa0e c:/intelfpga_lite/23.1std/nios2eds/bin/gnu/h-x86_64-mingw32/bin/../lib/gcc/nios2-elf/12.3.1/../../../../../H-x86_64-mingw32/nios2-elf/lib\libc.a(libc_a-fread.o)
 .debug_info    0x0000a080      0x884 c:/intelfpga_lite/23.1std/nios2eds/bin/gnu/h-x86_64-mingw32/bin/../lib/gcc/nios2-elf/12.3.1/../../../../../H-x86_64-mingw32/nios2-elf/lib\libc.a(libc_a-fseek.o)
 .debug_info    0x0000a904      0x7e4 c:/intelfpga_lite/23.1std/nios2eds/bin/gnu/h-x86_64-mingw32/bin/../lib/gcc/nios2-elf/12.3.1/../../../../../H-x86_64-mingw32/nios2-elf/lib\libc.a(libc_a-fwalk.o)
 .debug_info    0x0000b0e8      0x862 c:/intelfpga_lite/23.1std/nios2eds/bin/gnu/h-x86_64-mingw32/bin/../lib/gcc/nios2-elf/12.3.1/../../../../../H-x86_64-mingw32/nios2-elf/lib\libc.a(libc_a-printf.o)
 .debug_info    0x0000b94a      0x7cb c:/intelfpga_lite/23.1std/nios2eds/bin/gnu/h-x86_64-mingw32/bin/../lib/gcc/nios2-elf/12.3.1/../../../../../H-x86_64-mingw32/nios2-elf/lib\libc.a(libc_a-putchar.o)
 .debug_info    0x0000c115      0x8f2 c:/intelfpga_lite/23.1std/nios2eds/bin/gnu/h-x86_64-mingw32/bin/../lib/gcc/nios2-elf/12.3.1/../../../../../H-x86_64-mingw32/nios2-elf/lib\libc.a(libc_a-puts.o)
 .debug_info    0x0000ca07      0x98d c:/intelfpga_lite/23.1std/nios2eds/bin/gnu/h-x86_64-mingw32/bin/../lib/gcc/nios2-elf/12.3.1/../../../../../H-x86_64-mingw32/nios2-elf/lib\libc.a(libc_a-refill.o)
 .debug_info    0x0000d394      0xa5b c:/intelfpga_lite/23.1std/nios2eds/bin/gnu/h-x86_64-mingw32/bin/../lib/gcc/nios2-elf/12.3.1/../../../../../H-x86_64-mingw32/nios2-elf/lib\libc.a(libc_a-stdio.o)
 .debug_info    0x0000ddef      0xd32 c:/intelfpga_lite/23.1std/nios2eds/bin/gnu/h-x86_64-mingw32/bin/../lib/gcc/nios2-elf/12.3.1/../../../../../H-x86_64-mingw32/nios2-elf/lib\libc.a(libc_a-fseeko.o)
 .debug_info    0x0000eb21      0x157 c:/intelfpga_lite/23.1std/nios2eds/bin/gnu/h-x86_64-mingw32/bin/../lib/gcc/nios2-elf/12.3.1/../../../../../H-x86_64-mingw32/nios2-elf/lib\libc.a(libc_a-memcpy.o)
 .debug_info    0x0000ec78      0x135 c:/intelfpga_lite/23.1std/nios2eds/bin/gnu/h-x86_64-mingw32/bin/../lib/gcc/nios2-elf/12.3.1/../../../../../H-x86_64-mingw32/nios2-elf/lib\libc.a(libc_a-memset.o)
 .debug_info    0x0000edad       0xeb c:/intelfpga_lite/23.1std/nios2eds/bin/gnu/h-x86_64-mingw32/bin/../lib/gcc/nios2-elf/12.3.1/../../../../../H-x86_64-mingw32/nios2-elf/lib\libc.a(libc_a-strlen.o)
 .debug_info    0x0000ee98      0x76a c:/intelfpga_lite/23.1std/nios2eds/bin/gnu/h-x86_64-mingw32/bin/../lib/gcc/nios2-elf/12.3.1/../../../../../H-x86_64-mingw32/nios2-elf/lib\libc.a(libc_a-closer.o)
 .debug_info    0x0000f602      0x7e5 c:/intelfpga_lite/23.1std/nios2eds/bin/gnu/h-x86_64-mingw32/bin/../lib/gcc/nios2-elf/12.3.1/../../../../../H-x86_64-mingw32/nios2-elf/lib\libc.a(libc_a-reent.o)
 .debug_info    0x0000fde7      0x729 c:/intelfpga_lite/23.1std/nios2eds/bin/gnu/h-x86_64-mingw32/bin/../lib/gcc/nios2-elf/12.3.1/../../../../../H-x86_64-mingw32/nios2-elf/lib\libc.a(libc_a-impure.o)
 .debug_info    0x00010510      0x989 c:/intelfpga_lite/23.1std/nios2eds/bin/gnu/h-x86_64-mingw32/bin/../lib/gcc/nios2-elf/12.3.1/../../../../../H-x86_64-mingw32/nios2-elf/lib\libc.a(libc_a-fstatr.o)
 .debug_info    0x00010e99      0x7c1 c:/intelfpga_lite/23.1std/nios2eds/bin/gnu/h-x86_64-mingw32/bin/../lib/gcc/nios2-elf/12.3.1/../../../../../H-x86_64-mingw32/nios2-elf/lib\libc.a(libc_a-lseekr.o)
 .debug_info    0x0001165a      0x7a6 c:/intelfpga_lite/23.1std/nios2eds/bin/gnu/h-x86_64-mingw32/bin/../lib/gcc/nios2-elf/12.3.1/../../../../../H-x86_64-mingw32/nios2-elf/lib\libc.a(libc_a-openr.o)
 .debug_info    0x00011e00      0x7c0 c:/intelfpga_lite/23.1std/nios2eds/bin/gnu/h-x86_64-mingw32/bin/../lib/gcc/nios2-elf/12.3.1/../../../../../H-x86_64-mingw32/nios2-elf/lib\libc.a(libc_a-readr.o)
 .debug_info    0x000125c0      0x7c6 c:/intelfpga_lite/23.1std/nios2eds/bin/gnu/h-x86_64-mingw32/bin/../lib/gcc/nios2-elf/12.3.1/../../../../../H-x86_64-mingw32/nios2-elf/lib\libc.a(libc_a-writer.o)
 .debug_info    0x00012d86      0x70f c:/intelfpga_lite/23.1std/nios2eds/bin/gnu/h-x86_64-mingw32/bin/../lib/gcc/nios2-elf/12.3.1/../../../../../H-x86_64-mingw32/nios2-elf/lib\libc.a(libc_a-errno.o)
 .debug_info    0x00013495      0x231 c:/intelfpga_lite/23.1std/nios2eds/bin/gnu/h-x86_64-mingw32/bin/../lib/gcc/nios2-elf/12.3.1/../../../../../H-x86_64-mingw32/nios2-elf/lib\libc.a(libc_a-__call_atexit.o)
 .debug_info    0x000136c6      0xb06 c:/intelfpga_lite/23.1std/nios2eds/bin/gnu/h-x86_64-mingw32/bin/../lib/gcc/nios2-elf/12.3.1/../../../../../H-x86_64-mingw32/nios2-elf/lib\libc.a(libc_a-freer.o)
 .debug_info    0x000141cc      0xcb2 c:/intelfpga_lite/23.1std/nios2eds/bin/gnu/h-x86_64-mingw32/bin/../lib/gcc/nios2-elf/12.3.1/../../../../../H-x86_64-mingw32/nios2-elf/lib\libc.a(libc_a-mallocr.o)
 .debug_info    0x00014e7e     0x1a7e c:/intelfpga_lite/23.1std/nios2eds/bin/gnu/h-x86_64-mingw32/bin/../lib/gcc/nios2-elf/12.3.1/../../../../../H-x86_64-mingw32/nios2-elf/lib\libc.a(libc_a-vfprintf.o)
 .debug_info    0x000168fc     0x1837 c:/intelfpga_lite/23.1std/nios2eds/bin/gnu/h-x86_64-mingw32/bin/../lib/gcc/nios2-elf/12.3.1/../../../../../H-x86_64-mingw32/nios2-elf/lib\libc.a(libc_a-vfiprintf.o)
 .debug_info    0x00018133      0x76f c:/intelfpga_lite/23.1std/nios2eds/bin/gnu/h-x86_64-mingw32/bin/../lib/gcc/nios2-elf/12.3.1/../../../../../H-x86_64-mingw32/nios2-elf/lib\libc.a(libc_a-flags.o)
 .debug_info    0x000188a2      0xb1e c:/intelfpga_lite/23.1std/nios2eds/bin/gnu/h-x86_64-mingw32/bin/../lib/gcc/nios2-elf/12.3.1/../../../../../H-x86_64-mingw32/nios2-elf/lib\libc.a(libc_a-fvwrite.o)
 .debug_info    0x000193c0      0xc31 c:/intelfpga_lite/23.1std/nios2eds/bin/gnu/h-x86_64-mingw32/bin/../lib/gcc/nios2-elf/12.3.1/../../../../../H-x86_64-mingw32/nios2-elf/lib\libc.a(libc_a-makebuf.o)
 .debug_info    0x00019ff1      0x86a c:/intelfpga_lite/23.1std/nios2eds/bin/gnu/h-x86_64-mingw32/bin/../lib/gcc/nios2-elf/12.3.1/../../../../../H-x86_64-mingw32/nios2-elf/lib\libc.a(libc_a-putc.o)
 .debug_info    0x0001a85b      0x875 c:/intelfpga_lite/23.1std/nios2eds/bin/gnu/h-x86_64-mingw32/bin/../lib/gcc/nios2-elf/12.3.1/../../../../../H-x86_64-mingw32/nios2-elf/lib\libc.a(libc_a-wbuf.o)
 .debug_info    0x0001b0d0      0x7cf c:/intelfpga_lite/23.1std/nios2eds/bin/gnu/h-x86_64-mingw32/bin/../lib/gcc/nios2-elf/12.3.1/../../../../../H-x86_64-mingw32/nios2-elf/lib\libc.a(libc_a-wsetup.o)
 .debug_info    0x0001b89f      0x9d9 c:/intelfpga_lite/23.1std/nios2eds/bin/gnu/h-x86_64-mingw32/bin/../lib/gcc/nios2-elf/12.3.1/../../../../../H-x86_64-mingw32/nios2-elf/lib\libc.a(libc_a-fputwc.o)
 .debug_info    0x0001c278      0x14a c:/intelfpga_lite/23.1std/nios2eds/bin/gnu/h-x86_64-mingw32/bin/../lib/gcc/nios2-elf/12.3.1/../../../../../H-x86_64-mingw32/nios2-elf/lib\libc.a(libc_a-memchr.o)
 .debug_info    0x0001c3c2      0x14d c:/intelfpga_lite/23.1std/nios2eds/bin/gnu/h-x86_64-mingw32/bin/../lib/gcc/nios2-elf/12.3.1/../../../../../H-x86_64-mingw32/nios2-elf/lib\libc.a(libc_a-memmove.o)
 .debug_info    0x0001c50f      0xbdb c:/intelfpga_lite/23.1std/nios2eds/bin/gnu/h-x86_64-mingw32/bin/../lib/gcc/nios2-elf/12.3.1/../../../../../H-x86_64-mingw32/nios2-elf/lib\libc.a(libc_a-locale.o)
 .debug_info    0x0001d0ea      0xa20 c:/intelfpga_lite/23.1std/nios2eds/bin/gnu/h-x86_64-mingw32/bin/../lib/gcc/nios2-elf/12.3.1/../../../../../H-x86_64-mingw32/nios2-elf/lib\libc.a(libc_a-localeconv.o)
 .debug_info    0x0001db0a      0x76a c:/intelfpga_lite/23.1std/nios2eds/bin/gnu/h-x86_64-mingw32/bin/../lib/gcc/nios2-elf/12.3.1/../../../../../H-x86_64-mingw32/nios2-elf/lib\libc.a(libc_a-isattyr.o)
 .debug_info    0x0001e274      0x789 c:/intelfpga_lite/23.1std/nios2eds/bin/gnu/h-x86_64-mingw32/bin/../lib/gcc/nios2-elf/12.3.1/../../../../../H-x86_64-mingw32/nios2-elf/lib\libc.a(libc_a-sbrkr.o)
 .debug_info    0x0001e9fd     0x18d0 c:/intelfpga_lite/23.1std/nios2eds/bin/gnu/h-x86_64-mingw32/bin/../lib/gcc/nios2-elf/12.3.1/../../../../../H-x86_64-mingw32/nios2-elf/lib\libc.a(libc_a-dtoa.o)
 .debug_info    0x000202cd      0xaab c:/intelfpga_lite/23.1std/nios2eds/bin/gnu/h-x86_64-mingw32/bin/../lib/gcc/nios2-elf/12.3.1/../../../../../H-x86_64-mingw32/nios2-elf/lib\libc.a(libc_a-mbtowc_r.o)
 .debug_info    0x00020d78     0x1e3d c:/intelfpga_lite/23.1std/nios2eds/bin/gnu/h-x86_64-mingw32/bin/../lib/gcc/nios2-elf/12.3.1/../../../../../H-x86_64-mingw32/nios2-elf/lib\libc.a(libc_a-mprec.o)
 .debug_info    0x00022bb5      0xbfe c:/intelfpga_lite/23.1std/nios2eds/bin/gnu/h-x86_64-mingw32/bin/../lib/gcc/nios2-elf/12.3.1/../../../../../H-x86_64-mingw32/nios2-elf/lib\libc.a(libc_a-reallocr.o)
 .debug_info    0x000237b3      0xa63 c:/intelfpga_lite/23.1std/nios2eds/bin/gnu/h-x86_64-mingw32/bin/../lib/gcc/nios2-elf/12.3.1/../../../../../H-x86_64-mingw32/nios2-elf/lib\libc.a(libc_a-wctomb_r.o)
 .debug_info    0x00024216      0xb22 c:/intelfpga_lite/23.1std/nios2eds/bin/gnu/h-x86_64-mingw32/bin/../lib/gcc/nios2-elf/12.3.1/../../../../../H-x86_64-mingw32/nios2-elf/lib\libc.a(libc_a-wcrtomb.o)
 .debug_info    0x00024d38       0xed c:/intelfpga_lite/23.1std/nios2eds/bin/gnu/h-x86_64-mingw32/bin/../lib/gcc/nios2-elf/12.3.1/../../../../../H-x86_64-mingw32/nios2-elf/lib\libc.a(libc_a-ctype_.o)
 .debug_info    0x00024e25       0xeb c:/intelfpga_lite/23.1std/nios2eds/bin/gnu/h-x86_64-mingw32/bin/../lib/gcc/nios2-elf/12.3.1/../../../../../H-x86_64-mingw32/nios2-elf/lib\libc.a(libc_a-strcmp.o)
 .debug_info    0x00024f10      0x825 c:/intelfpga_lite/23.1std/nios2eds/bin/gnu/h-x86_64-mingw32/bin/../lib/gcc/nios2-elf/12.3.1/../../../../../H-x86_64-mingw32/nios2-elf/lib\libc.a(libc_a-assert.o)
 .debug_info    0x00025735      0x8dd c:/intelfpga_lite/23.1std/nios2eds/bin/gnu/h-x86_64-mingw32/bin/../lib/gcc/nios2-elf/12.3.1/../../../../../H-x86_64-mingw32/nios2-elf/lib\libc.a(libc_a-callocr.o)
 .debug_info    0x00026012      0x869 c:/intelfpga_lite/23.1std/nios2eds/bin/gnu/h-x86_64-mingw32/bin/../lib/gcc/nios2-elf/12.3.1/../../../../../H-x86_64-mingw32/nios2-elf/lib\libc.a(libc_a-fiprintf.o)
 .debug_info    0x0002687b      0x7c7 c:/intelfpga_lite/23.1std/nios2eds/bin/gnu/h-x86_64-mingw32/bin/../lib/gcc/nios2-elf/12.3.1/../../../../../H-x86_64-mingw32/nios2-elf/lib\libc.a(libc_a-vfiprintfr_1.o)
 .debug_info    0x00027042       0xd8 c:/intelfpga_lite/23.1std/nios2eds/bin/gnu/h-x86_64-mingw32/bin/../lib/gcc/nios2-elf/12.3.1/../../../../../H-x86_64-mingw32/nios2-elf/lib\libc.a(libc_a-abort.o)
 .debug_info    0x0002711a      0xc4c c:/intelfpga_lite/23.1std/nios2eds/bin/gnu/h-x86_64-mingw32/bin/../lib/gcc/nios2-elf/12.3.1/../../../../../H-x86_64-mingw32/nios2-elf/lib\libc.a(libc_a-signal.o)
 .debug_info    0x00027d66      0x7f1 c:/intelfpga_lite/23.1std/nios2eds/bin/gnu/h-x86_64-mingw32/bin/../lib/gcc/nios2-elf/12.3.1/../../../../../H-x86_64-mingw32/nios2-elf/lib\libc.a(libc_a-signalr.o)
 .debug_info    0x00028557      0x8bd c:/intelfpga_lite/23.1std/nios2eds/bin/gnu/h-x86_64-mingw32/bin/../lib/gcc/nios2-elf/12.3.1\libgcc.a(_udivdi3.o)
 .debug_info    0x00028e14      0x931 c:/intelfpga_lite/23.1std/nios2eds/bin/gnu/h-x86_64-mingw32/bin/../lib/gcc/nios2-elf/12.3.1\libgcc.a(_umoddi3.o)
 .debug_info    0x00029745      0x27e c:/intelfpga_lite/23.1std/nios2eds/bin/gnu/h-x86_64-mingw32/bin/../lib/gcc/nios2-elf/12.3.1\libgcc.a(floatunsidf.o)
 .debug_info    0x000299c3      0x379 c:/Users/pedro/OneDrive/Documentos/CNN-paralel/Software/c0_bsp/\libhal_bsp.a(alt_close.o)
 .debug_info    0x00029d3c      0x564 c:/Users/pedro/OneDrive/Documentos/CNN-paralel/Software/c0_bsp/\libhal_bsp.a(alt_dev.o)
 .debug_info    0x0002a2a0       0xa8 c:/Users/pedro/OneDrive/Documentos/CNN-paralel/Software/c0_bsp/\libhal_bsp.a(alt_errno.o)
 .debug_info    0x0002a348      0x53f c:/Users/pedro/OneDrive/Documentos/CNN-paralel/Software/c0_bsp/\libhal_bsp.a(alt_fstat.o)
 .debug_info    0x0002a887       0x44 c:/Users/pedro/OneDrive/Documentos/CNN-paralel/Software/c0_bsp/\libhal_bsp.a(alt_getpid.o)
 .debug_info    0x0002a8cb      0x559 c:/Users/pedro/OneDrive/Documentos/CNN-paralel/Software/c0_bsp/\libhal_bsp.a(alt_isatty.o)
 .debug_info    0x0002ae24      0x10c c:/Users/pedro/OneDrive/Documentos/CNN-paralel/Software/c0_bsp/\libhal_bsp.a(alt_kill.o)
 .debug_info    0x0002af30      0x144 c:/Users/pedro/OneDrive/Documentos/CNN-paralel/Software/c0_bsp/\libhal_bsp.a(alt_load.o)
 .debug_info    0x0002b074      0x38d c:/Users/pedro/OneDrive/Documentos/CNN-paralel/Software/c0_bsp/\libhal_bsp.a(alt_lseek.o)
 .debug_info    0x0002b401      0x18b c:/Users/pedro/OneDrive/Documentos/CNN-paralel/Software/c0_bsp/\libhal_bsp.a(alt_main.o)
 .debug_info    0x0002b58c      0x72b c:/Users/pedro/OneDrive/Documentos/CNN-paralel/Software/c0_bsp/\libhal_bsp.a(alt_malloc_lock.o)
 .debug_info    0x0002bcb7      0x4d3 c:/Users/pedro/OneDrive/Documentos/CNN-paralel/Software/c0_bsp/\libhal_bsp.a(alt_open.o)
 .debug_info    0x0002c18a      0x590 c:/Users/pedro/OneDrive/Documentos/CNN-paralel/Software/c0_bsp/\libhal_bsp.a(alt_read.o)
 .debug_info    0x0002c71a      0x2b1 c:/Users/pedro/OneDrive/Documentos/CNN-paralel/Software/c0_bsp/\libhal_bsp.a(alt_release_fd.o)
 .debug_info    0x0002c9cb      0x1c2 c:/Users/pedro/OneDrive/Documentos/CNN-paralel/Software/c0_bsp/\libhal_bsp.a(alt_sbrk.o)
 .debug_info    0x0002cb8d      0x596 c:/Users/pedro/OneDrive/Documentos/CNN-paralel/Software/c0_bsp/\libhal_bsp.a(alt_write.o)
 .debug_info    0x0002d123      0x565 c:/Users/pedro/OneDrive/Documentos/CNN-paralel/Software/c0_bsp/\libhal_bsp.a(alt_sys_init.o)
 .debug_info    0x0002d688      0x421 c:/Users/pedro/OneDrive/Documentos/CNN-paralel/Software/c0_bsp/\libhal_bsp.a(altera_avalon_jtag_uart_fd.o)
 .debug_info    0x0002daa9      0x168 c:/Users/pedro/OneDrive/Documentos/CNN-paralel/Software/c0_bsp/\libhal_bsp.a(altera_avalon_jtag_uart_read.o)
 .debug_info    0x0002dc11      0x149 c:/Users/pedro/OneDrive/Documentos/CNN-paralel/Software/c0_bsp/\libhal_bsp.a(altera_avalon_jtag_uart_write.o)
 .debug_info    0x0002dd5a      0xac2 c:/Users/pedro/OneDrive/Documentos/CNN-paralel/Software/c0_bsp/\libhal_bsp.a(altera_hostfs.o)
 .debug_info    0x0002e81c       0x8d c:/Users/pedro/OneDrive/Documentos/CNN-paralel/Software/c0_bsp/\libhal_bsp.a(alt_dcache_flush_all.o)
 .debug_info    0x0002e8a9      0x1a8 c:/Users/pedro/OneDrive/Documentos/CNN-paralel/Software/c0_bsp/\libhal_bsp.a(alt_dev_llist_insert.o)
 .debug_info    0x0002ea51      0x361 c:/Users/pedro/OneDrive/Documentos/CNN-paralel/Software/c0_bsp/\libhal_bsp.a(alt_find_dev.o)
 .debug_info    0x0002edb2      0x35d c:/Users/pedro/OneDrive/Documentos/CNN-paralel/Software/c0_bsp/\libhal_bsp.a(alt_find_file.o)
 .debug_info    0x0002f10f      0x2ff c:/Users/pedro/OneDrive/Documentos/CNN-paralel/Software/c0_bsp/\libhal_bsp.a(alt_fs_reg.o)
 .debug_info    0x0002f40e      0x30d c:/Users/pedro/OneDrive/Documentos/CNN-paralel/Software/c0_bsp/\libhal_bsp.a(alt_get_fd.o)
 .debug_info    0x0002f71b       0x8d c:/Users/pedro/OneDrive/Documentos/CNN-paralel/Software/c0_bsp/\libhal_bsp.a(alt_icache_flush_all.o)
 .debug_info    0x0002f7a8      0x631 c:/Users/pedro/OneDrive/Documentos/CNN-paralel/Software/c0_bsp/\libhal_bsp.a(alt_io_redirect.o)
 .debug_info    0x0002fdd9       0x8d c:/Users/pedro/OneDrive/Documentos/CNN-paralel/Software/c0_bsp/\libhal_bsp.a(altera_nios2_gen2_irq.o)
 .debug_info    0x0002fe66      0x12b c:/intelfpga_lite/23.1std/nios2eds/bin/gnu/h-x86_64-mingw32/bin/../lib/gcc/nios2-elf/12.3.1/../../../../../H-x86_64-mingw32/nios2-elf/lib\libc.a(libc_a-memcmp.o)

.debug_abbrev   0x00000000     0xd0f4
 *(.debug_abbrev)
 .debug_abbrev  0x00000000       0x1f c:/Users/pedro/OneDrive/Documentos/CNN-paralel/Software/c0_bsp//obj/HAL/src/crt0.o
 .debug_abbrev  0x0000001f      0x100 obj/default/image.o
 .debug_abbrev  0x0000011f      0x428 obj/default/main.o
 .debug_abbrev  0x00000547       0xef c:/intelfpga_lite/23.1std/nios2eds/bin/gnu/h-x86_64-mingw32/bin/../lib/gcc/nios2-elf/12.3.1/../../../../../H-x86_64-mingw32/nios2-elf/lib\libm.a(libm_a-w_exp.o)
 .debug_abbrev  0x00000636       0xd9 c:/intelfpga_lite/23.1std/nios2eds/bin/gnu/h-x86_64-mingw32/bin/../lib/gcc/nios2-elf/12.3.1/../../../../../H-x86_64-mingw32/nios2-elf/lib\libm.a(libm_a-s_finite.o)
 .debug_abbrev  0x0000070f      0x1b7 c:/intelfpga_lite/23.1std/nios2eds/bin/gnu/h-x86_64-mingw32/bin/../lib/gcc/nios2-elf/12.3.1/../../../../../H-x86_64-mingw32/nios2-elf/lib\libm.a(libm_a-e_exp.o)
 .debug_abbrev  0x000008c6      0x16b c:/intelfpga_lite/23.1std/nios2eds/bin/gnu/h-x86_64-mingw32/bin/../lib/gcc/nios2-elf/12.3.1/../../../../../H-x86_64-mingw32/nios2-elf/lib\libm.a(libm_a-math_err.o)
 .debug_abbrev  0x00000a31      0x10c c:/intelfpga_lite/23.1std/nios2eds/bin/gnu/h-x86_64-mingw32/bin/../lib/gcc/nios2-elf/12.3.1\libgcc.a(lib2-divmod.o)
 .debug_abbrev  0x00000b3d      0x15c c:/intelfpga_lite/23.1std/nios2eds/bin/gnu/h-x86_64-mingw32/bin/../lib/gcc/nios2-elf/12.3.1\libgcc.a(addsf3.o)
 .debug_abbrev  0x00000c99      0x144 c:/intelfpga_lite/23.1std/nios2eds/bin/gnu/h-x86_64-mingw32/bin/../lib/gcc/nios2-elf/12.3.1\libgcc.a(divsf3.o)
 .debug_abbrev  0x00000ddd      0x136 c:/intelfpga_lite/23.1std/nios2eds/bin/gnu/h-x86_64-mingw32/bin/../lib/gcc/nios2-elf/12.3.1\libgcc.a(gesf2.o)
 .debug_abbrev  0x00000f13      0x136 c:/intelfpga_lite/23.1std/nios2eds/bin/gnu/h-x86_64-mingw32/bin/../lib/gcc/nios2-elf/12.3.1\libgcc.a(lesf2.o)
 .debug_abbrev  0x00001049      0x148 c:/intelfpga_lite/23.1std/nios2eds/bin/gnu/h-x86_64-mingw32/bin/../lib/gcc/nios2-elf/12.3.1\libgcc.a(mulsf3.o)
 .debug_abbrev  0x00001191      0x15c c:/intelfpga_lite/23.1std/nios2eds/bin/gnu/h-x86_64-mingw32/bin/../lib/gcc/nios2-elf/12.3.1\libgcc.a(subsf3.o)
 .debug_abbrev  0x000012ed      0x16d c:/intelfpga_lite/23.1std/nios2eds/bin/gnu/h-x86_64-mingw32/bin/../lib/gcc/nios2-elf/12.3.1\libgcc.a(floatunsisf.o)
 .debug_abbrev  0x0000145a      0x16e c:/intelfpga_lite/23.1std/nios2eds/bin/gnu/h-x86_64-mingw32/bin/../lib/gcc/nios2-elf/12.3.1\libgcc.a(adddf3.o)
 .debug_abbrev  0x000015c8      0x16c c:/intelfpga_lite/23.1std/nios2eds/bin/gnu/h-x86_64-mingw32/bin/../lib/gcc/nios2-elf/12.3.1\libgcc.a(divdf3.o)
 .debug_abbrev  0x00001734      0x154 c:/intelfpga_lite/23.1std/nios2eds/bin/gnu/h-x86_64-mingw32/bin/../lib/gcc/nios2-elf/12.3.1\libgcc.a(eqdf2.o)
 .debug_abbrev  0x00001888      0x145 c:/intelfpga_lite/23.1std/nios2eds/bin/gnu/h-x86_64-mingw32/bin/../lib/gcc/nios2-elf/12.3.1\libgcc.a(gedf2.o)
 .debug_abbrev  0x000019cd      0x145 c:/intelfpga_lite/23.1std/nios2eds/bin/gnu/h-x86_64-mingw32/bin/../lib/gcc/nios2-elf/12.3.1\libgcc.a(ledf2.o)
 .debug_abbrev  0x00001b12      0x17e c:/intelfpga_lite/23.1std/nios2eds/bin/gnu/h-x86_64-mingw32/bin/../lib/gcc/nios2-elf/12.3.1\libgcc.a(muldf3.o)
 .debug_abbrev  0x00001c90      0x16e c:/intelfpga_lite/23.1std/nios2eds/bin/gnu/h-x86_64-mingw32/bin/../lib/gcc/nios2-elf/12.3.1\libgcc.a(subdf3.o)
 .debug_abbrev  0x00001dfe      0x12f c:/intelfpga_lite/23.1std/nios2eds/bin/gnu/h-x86_64-mingw32/bin/../lib/gcc/nios2-elf/12.3.1\libgcc.a(unorddf2.o)
 .debug_abbrev  0x00001f2d      0x144 c:/intelfpga_lite/23.1std/nios2eds/bin/gnu/h-x86_64-mingw32/bin/../lib/gcc/nios2-elf/12.3.1\libgcc.a(fixdfsi.o)
 .debug_abbrev  0x00002071      0x16c c:/intelfpga_lite/23.1std/nios2eds/bin/gnu/h-x86_64-mingw32/bin/../lib/gcc/nios2-elf/12.3.1\libgcc.a(floatsidf.o)
 .debug_abbrev  0x000021dd      0x148 c:/intelfpga_lite/23.1std/nios2eds/bin/gnu/h-x86_64-mingw32/bin/../lib/gcc/nios2-elf/12.3.1\libgcc.a(extendsfdf2.o)
 .debug_abbrev  0x00002325      0x137 c:/intelfpga_lite/23.1std/nios2eds/bin/gnu/h-x86_64-mingw32/bin/../lib/gcc/nios2-elf/12.3.1\libgcc.a(truncdfsf2.o)
 .debug_abbrev  0x0000245c       0xd3 c:/intelfpga_lite/23.1std/nios2eds/bin/gnu/h-x86_64-mingw32/bin/../lib/gcc/nios2-elf/12.3.1\libgcc.a(_clzsi2.o)
 .debug_abbrev  0x0000252f       0x70 c:/intelfpga_lite/23.1std/nios2eds/bin/gnu/h-x86_64-mingw32/bin/../lib/gcc/nios2-elf/12.3.1\libgcc.a(_clz.o)
 .debug_abbrev  0x0000259f       0xde c:/intelfpga_lite/23.1std/nios2eds/bin/gnu/h-x86_64-mingw32/bin/../lib/gcc/nios2-elf/12.3.1/../../../../../H-x86_64-mingw32/nios2-elf/lib\libc.a(libc_a-exit.o)
 .debug_abbrev  0x0000267d      0x2e8 c:/intelfpga_lite/23.1std/nios2eds/bin/gnu/h-x86_64-mingw32/bin/../lib/gcc/nios2-elf/12.3.1/../../../../../H-x86_64-mingw32/nios2-elf/lib\libc.a(libc_a-fclose.o)
 .debug_abbrev  0x00002965      0x31f c:/intelfpga_lite/23.1std/nios2eds/bin/gnu/h-x86_64-mingw32/bin/../lib/gcc/nios2-elf/12.3.1/../../../../../H-x86_64-mingw32/nios2-elf/lib\libc.a(libc_a-fflush.o)
 .debug_abbrev  0x00002c84      0x446 c:/intelfpga_lite/23.1std/nios2eds/bin/gnu/h-x86_64-mingw32/bin/../lib/gcc/nios2-elf/12.3.1/../../../../../H-x86_64-mingw32/nios2-elf/lib\libc.a(libc_a-findfp.o)
 .debug_abbrev  0x000030ca      0x28d c:/intelfpga_lite/23.1std/nios2eds/bin/gnu/h-x86_64-mingw32/bin/../lib/gcc/nios2-elf/12.3.1/../../../../../H-x86_64-mingw32/nios2-elf/lib\libc.a(libc_a-fopen.o)
 .debug_abbrev  0x00003357      0x2c2 c:/intelfpga_lite/23.1std/nios2eds/bin/gnu/h-x86_64-mingw32/bin/../lib/gcc/nios2-elf/12.3.1/../../../../../H-x86_64-mingw32/nios2-elf/lib\libc.a(libc_a-fread.o)
 .debug_abbrev  0x00003619      0x25e c:/intelfpga_lite/23.1std/nios2eds/bin/gnu/h-x86_64-mingw32/bin/../lib/gcc/nios2-elf/12.3.1/../../../../../H-x86_64-mingw32/nios2-elf/lib\libc.a(libc_a-fseek.o)
 .debug_abbrev  0x00003877      0x1d9 c:/intelfpga_lite/23.1std/nios2eds/bin/gnu/h-x86_64-mingw32/bin/../lib/gcc/nios2-elf/12.3.1/../../../../../H-x86_64-mingw32/nios2-elf/lib\libc.a(libc_a-fwalk.o)
 .debug_abbrev  0x00003a50      0x230 c:/intelfpga_lite/23.1std/nios2eds/bin/gnu/h-x86_64-mingw32/bin/../lib/gcc/nios2-elf/12.3.1/../../../../../H-x86_64-mingw32/nios2-elf/lib\libc.a(libc_a-printf.o)
 .debug_abbrev  0x00003c80      0x20c c:/intelfpga_lite/23.1std/nios2eds/bin/gnu/h-x86_64-mingw32/bin/../lib/gcc/nios2-elf/12.3.1/../../../../../H-x86_64-mingw32/nios2-elf/lib\libc.a(libc_a-putchar.o)
 .debug_abbrev  0x00003e8c      0x282 c:/intelfpga_lite/23.1std/nios2eds/bin/gnu/h-x86_64-mingw32/bin/../lib/gcc/nios2-elf/12.3.1/../../../../../H-x86_64-mingw32/nios2-elf/lib\libc.a(libc_a-puts.o)
 .debug_abbrev  0x0000410e      0x2c7 c:/intelfpga_lite/23.1std/nios2eds/bin/gnu/h-x86_64-mingw32/bin/../lib/gcc/nios2-elf/12.3.1/../../../../../H-x86_64-mingw32/nios2-elf/lib\libc.a(libc_a-refill.o)
 .debug_abbrev  0x000043d5      0x261 c:/intelfpga_lite/23.1std/nios2eds/bin/gnu/h-x86_64-mingw32/bin/../lib/gcc/nios2-elf/12.3.1/../../../../../H-x86_64-mingw32/nios2-elf/lib\libc.a(libc_a-stdio.o)
 .debug_abbrev  0x00004636      0x30b c:/intelfpga_lite/23.1std/nios2eds/bin/gnu/h-x86_64-mingw32/bin/../lib/gcc/nios2-elf/12.3.1/../../../../../H-x86_64-mingw32/nios2-elf/lib\libc.a(libc_a-fseeko.o)
 .debug_abbrev  0x00004941       0xb9 c:/intelfpga_lite/23.1std/nios2eds/bin/gnu/h-x86_64-mingw32/bin/../lib/gcc/nios2-elf/12.3.1/../../../../../H-x86_64-mingw32/nios2-elf/lib\libc.a(libc_a-memcpy.o)
 .debug_abbrev  0x000049fa       0xb7 c:/intelfpga_lite/23.1std/nios2eds/bin/gnu/h-x86_64-mingw32/bin/../lib/gcc/nios2-elf/12.3.1/../../../../../H-x86_64-mingw32/nios2-elf/lib\libc.a(libc_a-memset.o)
 .debug_abbrev  0x00004ab1       0x90 c:/intelfpga_lite/23.1std/nios2eds/bin/gnu/h-x86_64-mingw32/bin/../lib/gcc/nios2-elf/12.3.1/../../../../../H-x86_64-mingw32/nios2-elf/lib\libc.a(libc_a-strlen.o)
 .debug_abbrev  0x00004b41      0x1ec c:/intelfpga_lite/23.1std/nios2eds/bin/gnu/h-x86_64-mingw32/bin/../lib/gcc/nios2-elf/12.3.1/../../../../../H-x86_64-mingw32/nios2-elf/lib\libc.a(libc_a-closer.o)
 .debug_abbrev  0x00004d2d      0x22b c:/intelfpga_lite/23.1std/nios2eds/bin/gnu/h-x86_64-mingw32/bin/../lib/gcc/nios2-elf/12.3.1/../../../../../H-x86_64-mingw32/nios2-elf/lib\libc.a(libc_a-reent.o)
 .debug_abbrev  0x00004f58      0x185 c:/intelfpga_lite/23.1std/nios2eds/bin/gnu/h-x86_64-mingw32/bin/../lib/gcc/nios2-elf/12.3.1/../../../../../H-x86_64-mingw32/nios2-elf/lib\libc.a(libc_a-impure.o)
 .debug_abbrev  0x000050dd      0x1ff c:/intelfpga_lite/23.1std/nios2eds/bin/gnu/h-x86_64-mingw32/bin/../lib/gcc/nios2-elf/12.3.1/../../../../../H-x86_64-mingw32/nios2-elf/lib\libc.a(libc_a-fstatr.o)
 .debug_abbrev  0x000052dc      0x200 c:/intelfpga_lite/23.1std/nios2eds/bin/gnu/h-x86_64-mingw32/bin/../lib/gcc/nios2-elf/12.3.1/../../../../../H-x86_64-mingw32/nios2-elf/lib\libc.a(libc_a-lseekr.o)
 .debug_abbrev  0x000054dc      0x205 c:/intelfpga_lite/23.1std/nios2eds/bin/gnu/h-x86_64-mingw32/bin/../lib/gcc/nios2-elf/12.3.1/../../../../../H-x86_64-mingw32/nios2-elf/lib\libc.a(libc_a-openr.o)
 .debug_abbrev  0x000056e1      0x1ec c:/intelfpga_lite/23.1std/nios2eds/bin/gnu/h-x86_64-mingw32/bin/../lib/gcc/nios2-elf/12.3.1/../../../../../H-x86_64-mingw32/nios2-elf/lib\libc.a(libc_a-readr.o)
 .debug_abbrev  0x000058cd      0x1f1 c:/intelfpga_lite/23.1std/nios2eds/bin/gnu/h-x86_64-mingw32/bin/../lib/gcc/nios2-elf/12.3.1/../../../../../H-x86_64-mingw32/nios2-elf/lib\libc.a(libc_a-writer.o)
 .debug_abbrev  0x00005abe      0x19a c:/intelfpga_lite/23.1std/nios2eds/bin/gnu/h-x86_64-mingw32/bin/../lib/gcc/nios2-elf/12.3.1/../../../../../H-x86_64-mingw32/nios2-elf/lib\libc.a(libc_a-errno.o)
 .debug_abbrev  0x00005c58      0x16a c:/intelfpga_lite/23.1std/nios2eds/bin/gnu/h-x86_64-mingw32/bin/../lib/gcc/nios2-elf/12.3.1/../../../../../H-x86_64-mingw32/nios2-elf/lib\libc.a(libc_a-__call_atexit.o)
 .debug_abbrev  0x00005dc2      0x290 c:/intelfpga_lite/23.1std/nios2eds/bin/gnu/h-x86_64-mingw32/bin/../lib/gcc/nios2-elf/12.3.1/../../../../../H-x86_64-mingw32/nios2-elf/lib\libc.a(libc_a-freer.o)
 .debug_abbrev  0x00006052      0x2d7 c:/intelfpga_lite/23.1std/nios2eds/bin/gnu/h-x86_64-mingw32/bin/../lib/gcc/nios2-elf/12.3.1/../../../../../H-x86_64-mingw32/nios2-elf/lib\libc.a(libc_a-mallocr.o)
 .debug_abbrev  0x00006329      0x460 c:/intelfpga_lite/23.1std/nios2eds/bin/gnu/h-x86_64-mingw32/bin/../lib/gcc/nios2-elf/12.3.1/../../../../../H-x86_64-mingw32/nios2-elf/lib\libc.a(libc_a-vfprintf.o)
 .debug_abbrev  0x00006789      0x46c c:/intelfpga_lite/23.1std/nios2eds/bin/gnu/h-x86_64-mingw32/bin/../lib/gcc/nios2-elf/12.3.1/../../../../../H-x86_64-mingw32/nios2-elf/lib\libc.a(libc_a-vfiprintf.o)
 .debug_abbrev  0x00006bf5      0x1d8 c:/intelfpga_lite/23.1std/nios2eds/bin/gnu/h-x86_64-mingw32/bin/../lib/gcc/nios2-elf/12.3.1/../../../../../H-x86_64-mingw32/nios2-elf/lib\libc.a(libc_a-flags.o)
 .debug_abbrev  0x00006dcd      0x26a c:/intelfpga_lite/23.1std/nios2eds/bin/gnu/h-x86_64-mingw32/bin/../lib/gcc/nios2-elf/12.3.1/../../../../../H-x86_64-mingw32/nios2-elf/lib\libc.a(libc_a-fvwrite.o)
 .debug_abbrev  0x00007037      0x2c1 c:/intelfpga_lite/23.1std/nios2eds/bin/gnu/h-x86_64-mingw32/bin/../lib/gcc/nios2-elf/12.3.1/../../../../../H-x86_64-mingw32/nios2-elf/lib\libc.a(libc_a-makebuf.o)
 .debug_abbrev  0x000072f8      0x249 c:/intelfpga_lite/23.1std/nios2eds/bin/gnu/h-x86_64-mingw32/bin/../lib/gcc/nios2-elf/12.3.1/../../../../../H-x86_64-mingw32/nios2-elf/lib\libc.a(libc_a-putc.o)
 .debug_abbrev  0x00007541      0x272 c:/intelfpga_lite/23.1std/nios2eds/bin/gnu/h-x86_64-mingw32/bin/../lib/gcc/nios2-elf/12.3.1/../../../../../H-x86_64-mingw32/nios2-elf/lib\libc.a(libc_a-wbuf.o)
 .debug_abbrev  0x000077b3      0x21e c:/intelfpga_lite/23.1std/nios2eds/bin/gnu/h-x86_64-mingw32/bin/../lib/gcc/nios2-elf/12.3.1/../../../../../H-x86_64-mingw32/nios2-elf/lib\libc.a(libc_a-wsetup.o)
 .debug_abbrev  0x000079d1      0x2f2 c:/intelfpga_lite/23.1std/nios2eds/bin/gnu/h-x86_64-mingw32/bin/../lib/gcc/nios2-elf/12.3.1/../../../../../H-x86_64-mingw32/nios2-elf/lib\libc.a(libc_a-fputwc.o)
 .debug_abbrev  0x00007cc3       0xc7 c:/intelfpga_lite/23.1std/nios2eds/bin/gnu/h-x86_64-mingw32/bin/../lib/gcc/nios2-elf/12.3.1/../../../../../H-x86_64-mingw32/nios2-elf/lib\libc.a(libc_a-memchr.o)
 .debug_abbrev  0x00007d8a       0xb2 c:/intelfpga_lite/23.1std/nios2eds/bin/gnu/h-x86_64-mingw32/bin/../lib/gcc/nios2-elf/12.3.1/../../../../../H-x86_64-mingw32/nios2-elf/lib\libc.a(libc_a-memmove.o)
 .debug_abbrev  0x00007e3c      0x2d8 c:/intelfpga_lite/23.1std/nios2eds/bin/gnu/h-x86_64-mingw32/bin/../lib/gcc/nios2-elf/12.3.1/../../../../../H-x86_64-mingw32/nios2-elf/lib\libc.a(libc_a-locale.o)
 .debug_abbrev  0x00008114      0x264 c:/intelfpga_lite/23.1std/nios2eds/bin/gnu/h-x86_64-mingw32/bin/../lib/gcc/nios2-elf/12.3.1/../../../../../H-x86_64-mingw32/nios2-elf/lib\libc.a(libc_a-localeconv.o)
 .debug_abbrev  0x00008378      0x1ec c:/intelfpga_lite/23.1std/nios2eds/bin/gnu/h-x86_64-mingw32/bin/../lib/gcc/nios2-elf/12.3.1/../../../../../H-x86_64-mingw32/nios2-elf/lib\libc.a(libc_a-isattyr.o)
 .debug_abbrev  0x00008564      0x202 c:/intelfpga_lite/23.1std/nios2eds/bin/gnu/h-x86_64-mingw32/bin/../lib/gcc/nios2-elf/12.3.1/../../../../../H-x86_64-mingw32/nios2-elf/lib\libc.a(libc_a-sbrkr.o)
 .debug_abbrev  0x00008766      0x364 c:/intelfpga_lite/23.1std/nios2eds/bin/gnu/h-x86_64-mingw32/bin/../lib/gcc/nios2-elf/12.3.1/../../../../../H-x86_64-mingw32/nios2-elf/lib\libc.a(libc_a-dtoa.o)
 .debug_abbrev  0x00008aca      0x265 c:/intelfpga_lite/23.1std/nios2eds/bin/gnu/h-x86_64-mingw32/bin/../lib/gcc/nios2-elf/12.3.1/../../../../../H-x86_64-mingw32/nios2-elf/lib\libc.a(libc_a-mbtowc_r.o)
 .debug_abbrev  0x00008d2f      0x501 c:/intelfpga_lite/23.1std/nios2eds/bin/gnu/h-x86_64-mingw32/bin/../lib/gcc/nios2-elf/12.3.1/../../../../../H-x86_64-mingw32/nios2-elf/lib\libc.a(libc_a-mprec.o)
 .debug_abbrev  0x00009230      0x26f c:/intelfpga_lite/23.1std/nios2eds/bin/gnu/h-x86_64-mingw32/bin/../lib/gcc/nios2-elf/12.3.1/../../../../../H-x86_64-mingw32/nios2-elf/lib\libc.a(libc_a-reallocr.o)
 .debug_abbrev  0x0000949f      0x251 c:/intelfpga_lite/23.1std/nios2eds/bin/gnu/h-x86_64-mingw32/bin/../lib/gcc/nios2-elf/12.3.1/../../../../../H-x86_64-mingw32/nios2-elf/lib\libc.a(libc_a-wctomb_r.o)
 .debug_abbrev  0x000096f0      0x24c c:/intelfpga_lite/23.1std/nios2eds/bin/gnu/h-x86_64-mingw32/bin/../lib/gcc/nios2-elf/12.3.1/../../../../../H-x86_64-mingw32/nios2-elf/lib\libc.a(libc_a-wcrtomb.o)
 .debug_abbrev  0x0000993c       0x73 c:/intelfpga_lite/23.1std/nios2eds/bin/gnu/h-x86_64-mingw32/bin/../lib/gcc/nios2-elf/12.3.1/../../../../../H-x86_64-mingw32/nios2-elf/lib\libc.a(libc_a-ctype_.o)
 .debug_abbrev  0x000099af       0x83 c:/intelfpga_lite/23.1std/nios2eds/bin/gnu/h-x86_64-mingw32/bin/../lib/gcc/nios2-elf/12.3.1/../../../../../H-x86_64-mingw32/nios2-elf/lib\libc.a(libc_a-strcmp.o)
 .debug_abbrev  0x00009a32      0x226 c:/intelfpga_lite/23.1std/nios2eds/bin/gnu/h-x86_64-mingw32/bin/../lib/gcc/nios2-elf/12.3.1/../../../../../H-x86_64-mingw32/nios2-elf/lib\libc.a(libc_a-assert.o)
 .debug_abbrev  0x00009c58      0x25b c:/intelfpga_lite/23.1std/nios2eds/bin/gnu/h-x86_64-mingw32/bin/../lib/gcc/nios2-elf/12.3.1/../../../../../H-x86_64-mingw32/nios2-elf/lib\libc.a(libc_a-callocr.o)
 .debug_abbrev  0x00009eb3      0x218 c:/intelfpga_lite/23.1std/nios2eds/bin/gnu/h-x86_64-mingw32/bin/../lib/gcc/nios2-elf/12.3.1/../../../../../H-x86_64-mingw32/nios2-elf/lib\libc.a(libc_a-fiprintf.o)
 .debug_abbrev  0x0000a0cb      0x1fe c:/intelfpga_lite/23.1std/nios2eds/bin/gnu/h-x86_64-mingw32/bin/../lib/gcc/nios2-elf/12.3.1/../../../../../H-x86_64-mingw32/nios2-elf/lib\libc.a(libc_a-vfiprintfr_1.o)
 .debug_abbrev  0x0000a2c9       0x99 c:/intelfpga_lite/23.1std/nios2eds/bin/gnu/h-x86_64-mingw32/bin/../lib/gcc/nios2-elf/12.3.1/../../../../../H-x86_64-mingw32/nios2-elf/lib\libc.a(libc_a-abort.o)
 .debug_abbrev  0x0000a362      0x313 c:/intelfpga_lite/23.1std/nios2eds/bin/gnu/h-x86_64-mingw32/bin/../lib/gcc/nios2-elf/12.3.1/../../../../../H-x86_64-mingw32/nios2-elf/lib\libc.a(libc_a-signal.o)
 .debug_abbrev  0x0000a675      0x239 c:/intelfpga_lite/23.1std/nios2eds/bin/gnu/h-x86_64-mingw32/bin/../lib/gcc/nios2-elf/12.3.1/../../../../../H-x86_64-mingw32/nios2-elf/lib\libc.a(libc_a-signalr.o)
 .debug_abbrev  0x0000a8ae      0x1bb c:/intelfpga_lite/23.1std/nios2eds/bin/gnu/h-x86_64-mingw32/bin/../lib/gcc/nios2-elf/12.3.1\libgcc.a(_udivdi3.o)
 .debug_abbrev  0x0000aa69      0x1de c:/intelfpga_lite/23.1std/nios2eds/bin/gnu/h-x86_64-mingw32/bin/../lib/gcc/nios2-elf/12.3.1\libgcc.a(_umoddi3.o)
 .debug_abbrev  0x0000ac47      0x16b c:/intelfpga_lite/23.1std/nios2eds/bin/gnu/h-x86_64-mingw32/bin/../lib/gcc/nios2-elf/12.3.1\libgcc.a(floatunsidf.o)
 .debug_abbrev  0x0000adb2      0x17c c:/Users/pedro/OneDrive/Documentos/CNN-paralel/Software/c0_bsp/\libhal_bsp.a(alt_close.o)
 .debug_abbrev  0x0000af2e      0x11b c:/Users/pedro/OneDrive/Documentos/CNN-paralel/Software/c0_bsp/\libhal_bsp.a(alt_dev.o)
 .debug_abbrev  0x0000b049       0x70 c:/Users/pedro/OneDrive/Documentos/CNN-paralel/Software/c0_bsp/\libhal_bsp.a(alt_errno.o)
 .debug_abbrev  0x0000b0b9      0x15c c:/Users/pedro/OneDrive/Documentos/CNN-paralel/Software/c0_bsp/\libhal_bsp.a(alt_fstat.o)
 .debug_abbrev  0x0000b215       0x3a c:/Users/pedro/OneDrive/Documentos/CNN-paralel/Software/c0_bsp/\libhal_bsp.a(alt_getpid.o)
 .debug_abbrev  0x0000b24f      0x16a c:/Users/pedro/OneDrive/Documentos/CNN-paralel/Software/c0_bsp/\libhal_bsp.a(alt_isatty.o)
 .debug_abbrev  0x0000b3b9       0xca c:/Users/pedro/OneDrive/Documentos/CNN-paralel/Software/c0_bsp/\libhal_bsp.a(alt_kill.o)
 .debug_abbrev  0x0000b483       0xc2 c:/Users/pedro/OneDrive/Documentos/CNN-paralel/Software/c0_bsp/\libhal_bsp.a(alt_load.o)
 .debug_abbrev  0x0000b545      0x15c c:/Users/pedro/OneDrive/Documentos/CNN-paralel/Software/c0_bsp/\libhal_bsp.a(alt_lseek.o)
 .debug_abbrev  0x0000b6a1       0xf3 c:/Users/pedro/OneDrive/Documentos/CNN-paralel/Software/c0_bsp/\libhal_bsp.a(alt_main.o)
 .debug_abbrev  0x0000b794      0x1b2 c:/Users/pedro/OneDrive/Documentos/CNN-paralel/Software/c0_bsp/\libhal_bsp.a(alt_malloc_lock.o)
 .debug_abbrev  0x0000b946      0x20b c:/Users/pedro/OneDrive/Documentos/CNN-paralel/Software/c0_bsp/\libhal_bsp.a(alt_open.o)
 .debug_abbrev  0x0000bb51      0x169 c:/Users/pedro/OneDrive/Documentos/CNN-paralel/Software/c0_bsp/\libhal_bsp.a(alt_read.o)
 .debug_abbrev  0x0000bcba       0xed c:/Users/pedro/OneDrive/Documentos/CNN-paralel/Software/c0_bsp/\libhal_bsp.a(alt_release_fd.o)
 .debug_abbrev  0x0000bda7      0x147 c:/Users/pedro/OneDrive/Documentos/CNN-paralel/Software/c0_bsp/\libhal_bsp.a(alt_sbrk.o)
 .debug_abbrev  0x0000beee      0x16e c:/Users/pedro/OneDrive/Documentos/CNN-paralel/Software/c0_bsp/\libhal_bsp.a(alt_write.o)
 .debug_abbrev  0x0000c05c      0x1da c:/Users/pedro/OneDrive/Documentos/CNN-paralel/Software/c0_bsp/\libhal_bsp.a(alt_sys_init.o)
 .debug_abbrev  0x0000c236      0x146 c:/Users/pedro/OneDrive/Documentos/CNN-paralel/Software/c0_bsp/\libhal_bsp.a(altera_avalon_jtag_uart_fd.o)
 .debug_abbrev  0x0000c37c       0xef c:/Users/pedro/OneDrive/Documentos/CNN-paralel/Software/c0_bsp/\libhal_bsp.a(altera_avalon_jtag_uart_read.o)
 .debug_abbrev  0x0000c46b       0xdc c:/Users/pedro/OneDrive/Documentos/CNN-paralel/Software/c0_bsp/\libhal_bsp.a(altera_avalon_jtag_uart_write.o)
 .debug_abbrev  0x0000c547      0x289 c:/Users/pedro/OneDrive/Documentos/CNN-paralel/Software/c0_bsp/\libhal_bsp.a(altera_hostfs.o)
 .debug_abbrev  0x0000c7d0       0x43 c:/Users/pedro/OneDrive/Documentos/CNN-paralel/Software/c0_bsp/\libhal_bsp.a(alt_dcache_flush_all.o)
 .debug_abbrev  0x0000c813      0x12b c:/Users/pedro/OneDrive/Documentos/CNN-paralel/Software/c0_bsp/\libhal_bsp.a(alt_dev_llist_insert.o)
 .debug_abbrev  0x0000c93e      0x132 c:/Users/pedro/OneDrive/Documentos/CNN-paralel/Software/c0_bsp/\libhal_bsp.a(alt_find_dev.o)
 .debug_abbrev  0x0000ca70      0x143 c:/Users/pedro/OneDrive/Documentos/CNN-paralel/Software/c0_bsp/\libhal_bsp.a(alt_find_file.o)
 .debug_abbrev  0x0000cbb3      0x12a c:/Users/pedro/OneDrive/Documentos/CNN-paralel/Software/c0_bsp/\libhal_bsp.a(alt_fs_reg.o)
 .debug_abbrev  0x0000ccdd      0x137 c:/Users/pedro/OneDrive/Documentos/CNN-paralel/Software/c0_bsp/\libhal_bsp.a(alt_get_fd.o)
 .debug_abbrev  0x0000ce14       0x43 c:/Users/pedro/OneDrive/Documentos/CNN-paralel/Software/c0_bsp/\libhal_bsp.a(alt_icache_flush_all.o)
 .debug_abbrev  0x0000ce57      0x1ca c:/Users/pedro/OneDrive/Documentos/CNN-paralel/Software/c0_bsp/\libhal_bsp.a(alt_io_redirect.o)
 .debug_abbrev  0x0000d021       0x43 c:/Users/pedro/OneDrive/Documentos/CNN-paralel/Software/c0_bsp/\libhal_bsp.a(altera_nios2_gen2_irq.o)
 .debug_abbrev  0x0000d064       0x90 c:/intelfpga_lite/23.1std/nios2eds/bin/gnu/h-x86_64-mingw32/bin/../lib/gcc/nios2-elf/12.3.1/../../../../../H-x86_64-mingw32/nios2-elf/lib\libc.a(libc_a-memcmp.o)

.debug_line     0x00000000    0x14a20
 *(.debug_line)
 .debug_line    0x00000000       0x66 c:/Users/pedro/OneDrive/Documentos/CNN-paralel/Software/c0_bsp//obj/HAL/src/crt0.o
 .debug_line    0x00000066      0x199 obj/default/image.o
 .debug_line    0x000001ff      0x9b8 obj/default/main.o
 .debug_line    0x00000bb7       0xc3 c:/intelfpga_lite/23.1std/nios2eds/bin/gnu/h-x86_64-mingw32/bin/../lib/gcc/nios2-elf/12.3.1/../../../../../H-x86_64-mingw32/nios2-elf/lib\libm.a(libm_a-w_exp.o)
 .debug_line    0x00000c7a       0x75 c:/intelfpga_lite/23.1std/nios2eds/bin/gnu/h-x86_64-mingw32/bin/../lib/gcc/nios2-elf/12.3.1/../../../../../H-x86_64-mingw32/nios2-elf/lib\libm.a(libm_a-s_finite.o)
 .debug_line    0x00000cef      0x2eb c:/intelfpga_lite/23.1std/nios2eds/bin/gnu/h-x86_64-mingw32/bin/../lib/gcc/nios2-elf/12.3.1/../../../../../H-x86_64-mingw32/nios2-elf/lib\libm.a(libm_a-e_exp.o)
 .debug_line    0x00000fda      0x2ca c:/intelfpga_lite/23.1std/nios2eds/bin/gnu/h-x86_64-mingw32/bin/../lib/gcc/nios2-elf/12.3.1/../../../../../H-x86_64-mingw32/nios2-elf/lib\libm.a(libm_a-math_err.o)
 .debug_line    0x000012a4      0x2e3 c:/intelfpga_lite/23.1std/nios2eds/bin/gnu/h-x86_64-mingw32/bin/../lib/gcc/nios2-elf/12.3.1\libgcc.a(lib2-divmod.o)
 .debug_line    0x00001587      0x6bf c:/intelfpga_lite/23.1std/nios2eds/bin/gnu/h-x86_64-mingw32/bin/../lib/gcc/nios2-elf/12.3.1\libgcc.a(addsf3.o)
 .debug_line    0x00001c46      0x49b c:/intelfpga_lite/23.1std/nios2eds/bin/gnu/h-x86_64-mingw32/bin/../lib/gcc/nios2-elf/12.3.1\libgcc.a(divsf3.o)
 .debug_line    0x000020e1      0x15d c:/intelfpga_lite/23.1std/nios2eds/bin/gnu/h-x86_64-mingw32/bin/../lib/gcc/nios2-elf/12.3.1\libgcc.a(gesf2.o)
 .debug_line    0x0000223e      0x158 c:/intelfpga_lite/23.1std/nios2eds/bin/gnu/h-x86_64-mingw32/bin/../lib/gcc/nios2-elf/12.3.1\libgcc.a(lesf2.o)
 .debug_line    0x00002396      0x508 c:/intelfpga_lite/23.1std/nios2eds/bin/gnu/h-x86_64-mingw32/bin/../lib/gcc/nios2-elf/12.3.1\libgcc.a(mulsf3.o)
 .debug_line    0x0000289e      0x710 c:/intelfpga_lite/23.1std/nios2eds/bin/gnu/h-x86_64-mingw32/bin/../lib/gcc/nios2-elf/12.3.1\libgcc.a(subsf3.o)
 .debug_line    0x00002fae      0x209 c:/intelfpga_lite/23.1std/nios2eds/bin/gnu/h-x86_64-mingw32/bin/../lib/gcc/nios2-elf/12.3.1\libgcc.a(floatunsisf.o)
 .debug_line    0x000031b7      0xcda c:/intelfpga_lite/23.1std/nios2eds/bin/gnu/h-x86_64-mingw32/bin/../lib/gcc/nios2-elf/12.3.1\libgcc.a(adddf3.o)
 .debug_line    0x00003e91      0xabe c:/intelfpga_lite/23.1std/nios2eds/bin/gnu/h-x86_64-mingw32/bin/../lib/gcc/nios2-elf/12.3.1\libgcc.a(divdf3.o)
 .debug_line    0x0000494f       0xec c:/intelfpga_lite/23.1std/nios2eds/bin/gnu/h-x86_64-mingw32/bin/../lib/gcc/nios2-elf/12.3.1\libgcc.a(eqdf2.o)
 .debug_line    0x00004a3b      0x170 c:/intelfpga_lite/23.1std/nios2eds/bin/gnu/h-x86_64-mingw32/bin/../lib/gcc/nios2-elf/12.3.1\libgcc.a(gedf2.o)
 .debug_line    0x00004bab      0x167 c:/intelfpga_lite/23.1std/nios2eds/bin/gnu/h-x86_64-mingw32/bin/../lib/gcc/nios2-elf/12.3.1\libgcc.a(ledf2.o)
 .debug_line    0x00004d12      0x985 c:/intelfpga_lite/23.1std/nios2eds/bin/gnu/h-x86_64-mingw32/bin/../lib/gcc/nios2-elf/12.3.1\libgcc.a(muldf3.o)
 .debug_line    0x00005697      0xe1b c:/intelfpga_lite/23.1std/nios2eds/bin/gnu/h-x86_64-mingw32/bin/../lib/gcc/nios2-elf/12.3.1\libgcc.a(subdf3.o)
 .debug_line    0x000064b2       0xb3 c:/intelfpga_lite/23.1std/nios2eds/bin/gnu/h-x86_64-mingw32/bin/../lib/gcc/nios2-elf/12.3.1\libgcc.a(unorddf2.o)
 .debug_line    0x00006565      0x10e c:/intelfpga_lite/23.1std/nios2eds/bin/gnu/h-x86_64-mingw32/bin/../lib/gcc/nios2-elf/12.3.1\libgcc.a(fixdfsi.o)
 .debug_line    0x00006673      0x1c0 c:/intelfpga_lite/23.1std/nios2eds/bin/gnu/h-x86_64-mingw32/bin/../lib/gcc/nios2-elf/12.3.1\libgcc.a(floatsidf.o)
 .debug_line    0x00006833      0x268 c:/intelfpga_lite/23.1std/nios2eds/bin/gnu/h-x86_64-mingw32/bin/../lib/gcc/nios2-elf/12.3.1\libgcc.a(extendsfdf2.o)
 .debug_line    0x00006a9b      0x2f1 c:/intelfpga_lite/23.1std/nios2eds/bin/gnu/h-x86_64-mingw32/bin/../lib/gcc/nios2-elf/12.3.1\libgcc.a(truncdfsf2.o)
 .debug_line    0x00006d8c       0x9a c:/intelfpga_lite/23.1std/nios2eds/bin/gnu/h-x86_64-mingw32/bin/../lib/gcc/nios2-elf/12.3.1\libgcc.a(_clzsi2.o)
 .debug_line    0x00006e26       0x3f c:/intelfpga_lite/23.1std/nios2eds/bin/gnu/h-x86_64-mingw32/bin/../lib/gcc/nios2-elf/12.3.1\libgcc.a(_clz.o)
 .debug_line    0x00006e65       0x93 c:/intelfpga_lite/23.1std/nios2eds/bin/gnu/h-x86_64-mingw32/bin/../lib/gcc/nios2-elf/12.3.1/../../../../../H-x86_64-mingw32/nios2-elf/lib\libc.a(libc_a-exit.o)
 .debug_line    0x00006ef8      0x17b c:/intelfpga_lite/23.1std/nios2eds/bin/gnu/h-x86_64-mingw32/bin/../lib/gcc/nios2-elf/12.3.1/../../../../../H-x86_64-mingw32/nios2-elf/lib\libc.a(libc_a-fclose.o)
 .debug_line    0x00007073      0x3a8 c:/intelfpga_lite/23.1std/nios2eds/bin/gnu/h-x86_64-mingw32/bin/../lib/gcc/nios2-elf/12.3.1/../../../../../H-x86_64-mingw32/nios2-elf/lib\libc.a(libc_a-fflush.o)
 .debug_line    0x0000741b      0x53e c:/intelfpga_lite/23.1std/nios2eds/bin/gnu/h-x86_64-mingw32/bin/../lib/gcc/nios2-elf/12.3.1/../../../../../H-x86_64-mingw32/nios2-elf/lib\libc.a(libc_a-findfp.o)
 .debug_line    0x00007959      0x15a c:/intelfpga_lite/23.1std/nios2eds/bin/gnu/h-x86_64-mingw32/bin/../lib/gcc/nios2-elf/12.3.1/../../../../../H-x86_64-mingw32/nios2-elf/lib\libc.a(libc_a-fopen.o)
 .debug_line    0x00007ab3      0x2e6 c:/intelfpga_lite/23.1std/nios2eds/bin/gnu/h-x86_64-mingw32/bin/../lib/gcc/nios2-elf/12.3.1/../../../../../H-x86_64-mingw32/nios2-elf/lib\libc.a(libc_a-fread.o)
 .debug_line    0x00007d99       0xc0 c:/intelfpga_lite/23.1std/nios2eds/bin/gnu/h-x86_64-mingw32/bin/../lib/gcc/nios2-elf/12.3.1/../../../../../H-x86_64-mingw32/nios2-elf/lib\libc.a(libc_a-fseek.o)
 .debug_line    0x00007e59      0x103 c:/intelfpga_lite/23.1std/nios2eds/bin/gnu/h-x86_64-mingw32/bin/../lib/gcc/nios2-elf/12.3.1/../../../../../H-x86_64-mingw32/nios2-elf/lib\libc.a(libc_a-fwalk.o)
 .debug_line    0x00007f5c       0xd1 c:/intelfpga_lite/23.1std/nios2eds/bin/gnu/h-x86_64-mingw32/bin/../lib/gcc/nios2-elf/12.3.1/../../../../../H-x86_64-mingw32/nios2-elf/lib\libc.a(libc_a-printf.o)
 .debug_line    0x0000802d       0xa9 c:/intelfpga_lite/23.1std/nios2eds/bin/gnu/h-x86_64-mingw32/bin/../lib/gcc/nios2-elf/12.3.1/../../../../../H-x86_64-mingw32/nios2-elf/lib\libc.a(libc_a-putchar.o)
 .debug_line    0x000080d6      0x180 c:/intelfpga_lite/23.1std/nios2eds/bin/gnu/h-x86_64-mingw32/bin/../lib/gcc/nios2-elf/12.3.1/../../../../../H-x86_64-mingw32/nios2-elf/lib\libc.a(libc_a-puts.o)
 .debug_line    0x00008256      0x278 c:/intelfpga_lite/23.1std/nios2eds/bin/gnu/h-x86_64-mingw32/bin/../lib/gcc/nios2-elf/12.3.1/../../../../../H-x86_64-mingw32/nios2-elf/lib\libc.a(libc_a-refill.o)
 .debug_line    0x000084ce      0x1ac c:/intelfpga_lite/23.1std/nios2eds/bin/gnu/h-x86_64-mingw32/bin/../lib/gcc/nios2-elf/12.3.1/../../../../../H-x86_64-mingw32/nios2-elf/lib\libc.a(libc_a-stdio.o)
 .debug_line    0x0000867a      0x56c c:/intelfpga_lite/23.1std/nios2eds/bin/gnu/h-x86_64-mingw32/bin/../lib/gcc/nios2-elf/12.3.1/../../../../../H-x86_64-mingw32/nios2-elf/lib\libc.a(libc_a-fseeko.o)
 .debug_line    0x00008be6      0x131 c:/intelfpga_lite/23.1std/nios2eds/bin/gnu/h-x86_64-mingw32/bin/../lib/gcc/nios2-elf/12.3.1/../../../../../H-x86_64-mingw32/nios2-elf/lib\libc.a(libc_a-memcpy.o)
 .debug_line    0x00008d17      0x14f c:/intelfpga_lite/23.1std/nios2eds/bin/gnu/h-x86_64-mingw32/bin/../lib/gcc/nios2-elf/12.3.1/../../../../../H-x86_64-mingw32/nios2-elf/lib\libc.a(libc_a-memset.o)
 .debug_line    0x00008e66       0xc6 c:/intelfpga_lite/23.1std/nios2eds/bin/gnu/h-x86_64-mingw32/bin/../lib/gcc/nios2-elf/12.3.1/../../../../../H-x86_64-mingw32/nios2-elf/lib\libc.a(libc_a-strlen.o)
 .debug_line    0x00008f2c       0xba c:/intelfpga_lite/23.1std/nios2eds/bin/gnu/h-x86_64-mingw32/bin/../lib/gcc/nios2-elf/12.3.1/../../../../../H-x86_64-mingw32/nios2-elf/lib\libc.a(libc_a-closer.o)
 .debug_line    0x00008fe6      0x101 c:/intelfpga_lite/23.1std/nios2eds/bin/gnu/h-x86_64-mingw32/bin/../lib/gcc/nios2-elf/12.3.1/../../../../../H-x86_64-mingw32/nios2-elf/lib\libc.a(libc_a-reent.o)
 .debug_line    0x000090e7       0x51 c:/intelfpga_lite/23.1std/nios2eds/bin/gnu/h-x86_64-mingw32/bin/../lib/gcc/nios2-elf/12.3.1/../../../../../H-x86_64-mingw32/nios2-elf/lib\libc.a(libc_a-impure.o)
 .debug_line    0x00009138       0xd3 c:/intelfpga_lite/23.1std/nios2eds/bin/gnu/h-x86_64-mingw32/bin/../lib/gcc/nios2-elf/12.3.1/../../../../../H-x86_64-mingw32/nios2-elf/lib\libc.a(libc_a-fstatr.o)
 .debug_line    0x0000920b       0xc0 c:/intelfpga_lite/23.1std/nios2eds/bin/gnu/h-x86_64-mingw32/bin/../lib/gcc/nios2-elf/12.3.1/../../../../../H-x86_64-mingw32/nios2-elf/lib\libc.a(libc_a-lseekr.o)
 .debug_line    0x000092cb       0xbb c:/intelfpga_lite/23.1std/nios2eds/bin/gnu/h-x86_64-mingw32/bin/../lib/gcc/nios2-elf/12.3.1/../../../../../H-x86_64-mingw32/nios2-elf/lib\libc.a(libc_a-openr.o)
 .debug_line    0x00009386       0xbb c:/intelfpga_lite/23.1std/nios2eds/bin/gnu/h-x86_64-mingw32/bin/../lib/gcc/nios2-elf/12.3.1/../../../../../H-x86_64-mingw32/nios2-elf/lib\libc.a(libc_a-readr.o)
 .debug_line    0x00009441       0xbb c:/intelfpga_lite/23.1std/nios2eds/bin/gnu/h-x86_64-mingw32/bin/../lib/gcc/nios2-elf/12.3.1/../../../../../H-x86_64-mingw32/nios2-elf/lib\libc.a(libc_a-writer.o)
 .debug_line    0x000094fc       0x73 c:/intelfpga_lite/23.1std/nios2eds/bin/gnu/h-x86_64-mingw32/bin/../lib/gcc/nios2-elf/12.3.1/../../../../../H-x86_64-mingw32/nios2-elf/lib\libc.a(libc_a-errno.o)
 .debug_line    0x0000956f      0x162 c:/intelfpga_lite/23.1std/nios2eds/bin/gnu/h-x86_64-mingw32/bin/../lib/gcc/nios2-elf/12.3.1/../../../../../H-x86_64-mingw32/nios2-elf/lib\libc.a(libc_a-__call_atexit.o)
 .debug_line    0x000096d1      0x454 c:/intelfpga_lite/23.1std/nios2eds/bin/gnu/h-x86_64-mingw32/bin/../lib/gcc/nios2-elf/12.3.1/../../../../../H-x86_64-mingw32/nios2-elf/lib\libc.a(libc_a-freer.o)
 .debug_line    0x00009b25      0x7b0 c:/intelfpga_lite/23.1std/nios2eds/bin/gnu/h-x86_64-mingw32/bin/../lib/gcc/nios2-elf/12.3.1/../../../../../H-x86_64-mingw32/nios2-elf/lib\libc.a(libc_a-mallocr.o)
 .debug_line    0x0000a2d5     0x19f3 c:/intelfpga_lite/23.1std/nios2eds/bin/gnu/h-x86_64-mingw32/bin/../lib/gcc/nios2-elf/12.3.1/../../../../../H-x86_64-mingw32/nios2-elf/lib\libc.a(libc_a-vfprintf.o)
 .debug_line    0x0000bcc8     0x131d c:/intelfpga_lite/23.1std/nios2eds/bin/gnu/h-x86_64-mingw32/bin/../lib/gcc/nios2-elf/12.3.1/../../../../../H-x86_64-mingw32/nios2-elf/lib\libc.a(libc_a-vfiprintf.o)
 .debug_line    0x0000cfe5       0xfb c:/intelfpga_lite/23.1std/nios2eds/bin/gnu/h-x86_64-mingw32/bin/../lib/gcc/nios2-elf/12.3.1/../../../../../H-x86_64-mingw32/nios2-elf/lib\libc.a(libc_a-flags.o)
 .debug_line    0x0000d0e0      0x545 c:/intelfpga_lite/23.1std/nios2eds/bin/gnu/h-x86_64-mingw32/bin/../lib/gcc/nios2-elf/12.3.1/../../../../../H-x86_64-mingw32/nios2-elf/lib\libc.a(libc_a-fvwrite.o)
 .debug_line    0x0000d625      0x2b3 c:/intelfpga_lite/23.1std/nios2eds/bin/gnu/h-x86_64-mingw32/bin/../lib/gcc/nios2-elf/12.3.1/../../../../../H-x86_64-mingw32/nios2-elf/lib\libc.a(libc_a-makebuf.o)
 .debug_line    0x0000d8d8      0x205 c:/intelfpga_lite/23.1std/nios2eds/bin/gnu/h-x86_64-mingw32/bin/../lib/gcc/nios2-elf/12.3.1/../../../../../H-x86_64-mingw32/nios2-elf/lib\libc.a(libc_a-putc.o)
 .debug_line    0x0000dadd      0x1fc c:/intelfpga_lite/23.1std/nios2eds/bin/gnu/h-x86_64-mingw32/bin/../lib/gcc/nios2-elf/12.3.1/../../../../../H-x86_64-mingw32/nios2-elf/lib\libc.a(libc_a-wbuf.o)
 .debug_line    0x0000dcd9      0x1fa c:/intelfpga_lite/23.1std/nios2eds/bin/gnu/h-x86_64-mingw32/bin/../lib/gcc/nios2-elf/12.3.1/../../../../../H-x86_64-mingw32/nios2-elf/lib\libc.a(libc_a-wsetup.o)
 .debug_line    0x0000ded3      0x271 c:/intelfpga_lite/23.1std/nios2eds/bin/gnu/h-x86_64-mingw32/bin/../lib/gcc/nios2-elf/12.3.1/../../../../../H-x86_64-mingw32/nios2-elf/lib\libc.a(libc_a-fputwc.o)
 .debug_line    0x0000e144      0x102 c:/intelfpga_lite/23.1std/nios2eds/bin/gnu/h-x86_64-mingw32/bin/../lib/gcc/nios2-elf/12.3.1/../../../../../H-x86_64-mingw32/nios2-elf/lib\libc.a(libc_a-memchr.o)
 .debug_line    0x0000e246      0x169 c:/intelfpga_lite/23.1std/nios2eds/bin/gnu/h-x86_64-mingw32/bin/../lib/gcc/nios2-elf/12.3.1/../../../../../H-x86_64-mingw32/nios2-elf/lib\libc.a(libc_a-memmove.o)
 .debug_line    0x0000e3af      0x175 c:/intelfpga_lite/23.1std/nios2eds/bin/gnu/h-x86_64-mingw32/bin/../lib/gcc/nios2-elf/12.3.1/../../../../../H-x86_64-mingw32/nios2-elf/lib\libc.a(libc_a-locale.o)
 .debug_line    0x0000e524       0xb4 c:/intelfpga_lite/23.1std/nios2eds/bin/gnu/h-x86_64-mingw32/bin/../lib/gcc/nios2-elf/12.3.1/../../../../../H-x86_64-mingw32/nios2-elf/lib\libc.a(libc_a-localeconv.o)
 .debug_line    0x0000e5d8       0xba c:/intelfpga_lite/23.1std/nios2eds/bin/gnu/h-x86_64-mingw32/bin/../lib/gcc/nios2-elf/12.3.1/../../../../../H-x86_64-mingw32/nios2-elf/lib\libc.a(libc_a-isattyr.o)
 .debug_line    0x0000e692       0xb6 c:/intelfpga_lite/23.1std/nios2eds/bin/gnu/h-x86_64-mingw32/bin/../lib/gcc/nios2-elf/12.3.1/../../../../../H-x86_64-mingw32/nios2-elf/lib\libc.a(libc_a-sbrkr.o)
 .debug_line    0x0000e748     0x148f c:/intelfpga_lite/23.1std/nios2eds/bin/gnu/h-x86_64-mingw32/bin/../lib/gcc/nios2-elf/12.3.1/../../../../../H-x86_64-mingw32/nios2-elf/lib\libc.a(libc_a-dtoa.o)
 .debug_line    0x0000fbd7       0xed c:/intelfpga_lite/23.1std/nios2eds/bin/gnu/h-x86_64-mingw32/bin/../lib/gcc/nios2-elf/12.3.1/../../../../../H-x86_64-mingw32/nios2-elf/lib\libc.a(libc_a-mbtowc_r.o)
 .debug_line    0x0000fcc4     0x1531 c:/intelfpga_lite/23.1std/nios2eds/bin/gnu/h-x86_64-mingw32/bin/../lib/gcc/nios2-elf/12.3.1/../../../../../H-x86_64-mingw32/nios2-elf/lib\libc.a(libc_a-mprec.o)
 .debug_line    0x000111f5      0x6f2 c:/intelfpga_lite/23.1std/nios2eds/bin/gnu/h-x86_64-mingw32/bin/../lib/gcc/nios2-elf/12.3.1/../../../../../H-x86_64-mingw32/nios2-elf/lib\libc.a(libc_a-reallocr.o)
 .debug_line    0x000118e7       0xda c:/intelfpga_lite/23.1std/nios2eds/bin/gnu/h-x86_64-mingw32/bin/../lib/gcc/nios2-elf/12.3.1/../../../../../H-x86_64-mingw32/nios2-elf/lib\libc.a(libc_a-wctomb_r.o)
 .debug_line    0x000119c1      0x16f c:/intelfpga_lite/23.1std/nios2eds/bin/gnu/h-x86_64-mingw32/bin/../lib/gcc/nios2-elf/12.3.1/../../../../../H-x86_64-mingw32/nios2-elf/lib\libc.a(libc_a-wcrtomb.o)
 .debug_line    0x00011b30       0x48 c:/intelfpga_lite/23.1std/nios2eds/bin/gnu/h-x86_64-mingw32/bin/../lib/gcc/nios2-elf/12.3.1/../../../../../H-x86_64-mingw32/nios2-elf/lib\libc.a(libc_a-ctype_.o)
 .debug_line    0x00011b78       0xf4 c:/intelfpga_lite/23.1std/nios2eds/bin/gnu/h-x86_64-mingw32/bin/../lib/gcc/nios2-elf/12.3.1/../../../../../H-x86_64-mingw32/nios2-elf/lib\libc.a(libc_a-strcmp.o)
 .debug_line    0x00011c6c       0xc9 c:/intelfpga_lite/23.1std/nios2eds/bin/gnu/h-x86_64-mingw32/bin/../lib/gcc/nios2-elf/12.3.1/../../../../../H-x86_64-mingw32/nios2-elf/lib\libc.a(libc_a-assert.o)
 .debug_line    0x00011d35      0x183 c:/intelfpga_lite/23.1std/nios2eds/bin/gnu/h-x86_64-mingw32/bin/../lib/gcc/nios2-elf/12.3.1/../../../../../H-x86_64-mingw32/nios2-elf/lib\libc.a(libc_a-callocr.o)
 .debug_line    0x00011eb8       0xb9 c:/intelfpga_lite/23.1std/nios2eds/bin/gnu/h-x86_64-mingw32/bin/../lib/gcc/nios2-elf/12.3.1/../../../../../H-x86_64-mingw32/nios2-elf/lib\libc.a(libc_a-fiprintf.o)
 .debug_line    0x00011f71       0x87 c:/intelfpga_lite/23.1std/nios2eds/bin/gnu/h-x86_64-mingw32/bin/../lib/gcc/nios2-elf/12.3.1/../../../../../H-x86_64-mingw32/nios2-elf/lib\libc.a(libc_a-vfiprintfr_1.o)
 .debug_line    0x00011ff8       0x7b c:/intelfpga_lite/23.1std/nios2eds/bin/gnu/h-x86_64-mingw32/bin/../lib/gcc/nios2-elf/12.3.1/../../../../../H-x86_64-mingw32/nios2-elf/lib\libc.a(libc_a-abort.o)
 .debug_line    0x00012073      0x562 c:/intelfpga_lite/23.1std/nios2eds/bin/gnu/h-x86_64-mingw32/bin/../lib/gcc/nios2-elf/12.3.1/../../../../../H-x86_64-mingw32/nios2-elf/lib\libc.a(libc_a-signal.o)
 .debug_line    0x000125d5       0xe1 c:/intelfpga_lite/23.1std/nios2eds/bin/gnu/h-x86_64-mingw32/bin/../lib/gcc/nios2-elf/12.3.1/../../../../../H-x86_64-mingw32/nios2-elf/lib\libc.a(libc_a-signalr.o)
 .debug_line    0x000126b6      0x31c c:/intelfpga_lite/23.1std/nios2eds/bin/gnu/h-x86_64-mingw32/bin/../lib/gcc/nios2-elf/12.3.1\libgcc.a(_udivdi3.o)
 .debug_line    0x000129d2      0x36e c:/intelfpga_lite/23.1std/nios2eds/bin/gnu/h-x86_64-mingw32/bin/../lib/gcc/nios2-elf/12.3.1\libgcc.a(_umoddi3.o)
 .debug_line    0x00012d40      0x19f c:/intelfpga_lite/23.1std/nios2eds/bin/gnu/h-x86_64-mingw32/bin/../lib/gcc/nios2-elf/12.3.1\libgcc.a(floatunsidf.o)
 .debug_line    0x00012edf      0x144 c:/Users/pedro/OneDrive/Documentos/CNN-paralel/Software/c0_bsp/\libhal_bsp.a(alt_close.o)
 .debug_line    0x00013023       0xa3 c:/Users/pedro/OneDrive/Documentos/CNN-paralel/Software/c0_bsp/\libhal_bsp.a(alt_dev.o)
 .debug_line    0x000130c6       0x4c c:/Users/pedro/OneDrive/Documentos/CNN-paralel/Software/c0_bsp/\libhal_bsp.a(alt_errno.o)
 .debug_line    0x00013112      0x122 c:/Users/pedro/OneDrive/Documentos/CNN-paralel/Software/c0_bsp/\libhal_bsp.a(alt_fstat.o)
 .debug_line    0x00013234       0x51 c:/Users/pedro/OneDrive/Documentos/CNN-paralel/Software/c0_bsp/\libhal_bsp.a(alt_getpid.o)
 .debug_line    0x00013285      0x10e c:/Users/pedro/OneDrive/Documentos/CNN-paralel/Software/c0_bsp/\libhal_bsp.a(alt_isatty.o)
 .debug_line    0x00013393       0xd0 c:/Users/pedro/OneDrive/Documentos/CNN-paralel/Software/c0_bsp/\libhal_bsp.a(alt_kill.o)
 .debug_line    0x00013463       0x9d c:/Users/pedro/OneDrive/Documentos/CNN-paralel/Software/c0_bsp/\libhal_bsp.a(alt_load.o)
 .debug_line    0x00013500      0x10e c:/Users/pedro/OneDrive/Documentos/CNN-paralel/Software/c0_bsp/\libhal_bsp.a(alt_lseek.o)
 .debug_line    0x0001360e       0xb0 c:/Users/pedro/OneDrive/Documentos/CNN-paralel/Software/c0_bsp/\libhal_bsp.a(alt_main.o)
 .debug_line    0x000136be       0x7a c:/Users/pedro/OneDrive/Documentos/CNN-paralel/Software/c0_bsp/\libhal_bsp.a(alt_malloc_lock.o)
 .debug_line    0x00013738      0x195 c:/Users/pedro/OneDrive/Documentos/CNN-paralel/Software/c0_bsp/\libhal_bsp.a(alt_open.o)
 .debug_line    0x000138cd      0x155 c:/Users/pedro/OneDrive/Documentos/CNN-paralel/Software/c0_bsp/\libhal_bsp.a(alt_read.o)
 .debug_line    0x00013a22       0x86 c:/Users/pedro/OneDrive/Documentos/CNN-paralel/Software/c0_bsp/\libhal_bsp.a(alt_release_fd.o)
 .debug_line    0x00013aa8       0xea c:/Users/pedro/OneDrive/Documentos/CNN-paralel/Software/c0_bsp/\libhal_bsp.a(alt_sbrk.o)
 .debug_line    0x00013b92      0x158 c:/Users/pedro/OneDrive/Documentos/CNN-paralel/Software/c0_bsp/\libhal_bsp.a(alt_write.o)
 .debug_line    0x00013cea       0xf7 c:/Users/pedro/OneDrive/Documentos/CNN-paralel/Software/c0_bsp/\libhal_bsp.a(alt_sys_init.o)
 .debug_line    0x00013de1       0x9b c:/Users/pedro/OneDrive/Documentos/CNN-paralel/Software/c0_bsp/\libhal_bsp.a(altera_avalon_jtag_uart_fd.o)
 .debug_line    0x00013e7c       0xd7 c:/Users/pedro/OneDrive/Documentos/CNN-paralel/Software/c0_bsp/\libhal_bsp.a(altera_avalon_jtag_uart_read.o)
 .debug_line    0x00013f53       0x93 c:/Users/pedro/OneDrive/Documentos/CNN-paralel/Software/c0_bsp/\libhal_bsp.a(altera_avalon_jtag_uart_write.o)
 .debug_line    0x00013fe6      0x353 c:/Users/pedro/OneDrive/Documentos/CNN-paralel/Software/c0_bsp/\libhal_bsp.a(altera_hostfs.o)
 .debug_line    0x00014339       0x4e c:/Users/pedro/OneDrive/Documentos/CNN-paralel/Software/c0_bsp/\libhal_bsp.a(alt_dcache_flush_all.o)
 .debug_line    0x00014387       0xd7 c:/Users/pedro/OneDrive/Documentos/CNN-paralel/Software/c0_bsp/\libhal_bsp.a(alt_dev_llist_insert.o)
 .debug_line    0x0001445e       0xb7 c:/Users/pedro/OneDrive/Documentos/CNN-paralel/Software/c0_bsp/\libhal_bsp.a(alt_find_dev.o)
 .debug_line    0x00014515       0xeb c:/Users/pedro/OneDrive/Documentos/CNN-paralel/Software/c0_bsp/\libhal_bsp.a(alt_find_file.o)
 .debug_line    0x00014600       0xb8 c:/Users/pedro/OneDrive/Documentos/CNN-paralel/Software/c0_bsp/\libhal_bsp.a(alt_fs_reg.o)
 .debug_line    0x000146b8       0xc1 c:/Users/pedro/OneDrive/Documentos/CNN-paralel/Software/c0_bsp/\libhal_bsp.a(alt_get_fd.o)
 .debug_line    0x00014779       0x4c c:/Users/pedro/OneDrive/Documentos/CNN-paralel/Software/c0_bsp/\libhal_bsp.a(alt_icache_flush_all.o)
 .debug_line    0x000147c5      0x126 c:/Users/pedro/OneDrive/Documentos/CNN-paralel/Software/c0_bsp/\libhal_bsp.a(alt_io_redirect.o)
 .debug_line    0x000148eb       0x54 c:/Users/pedro/OneDrive/Documentos/CNN-paralel/Software/c0_bsp/\libhal_bsp.a(altera_nios2_gen2_irq.o)
 .debug_line    0x0001493f       0xe1 c:/intelfpga_lite/23.1std/nios2eds/bin/gnu/h-x86_64-mingw32/bin/../lib/gcc/nios2-elf/12.3.1/../../../../../H-x86_64-mingw32/nios2-elf/lib\libc.a(libc_a-memcmp.o)

.debug_frame    0x00000000     0x27d4
 *(.debug_frame)
 .debug_frame   0x00000000       0xa0 obj/default/image.o
 .debug_frame   0x000000a0      0x30c obj/default/main.o
 .debug_frame   0x000003ac       0x40 c:/intelfpga_lite/23.1std/nios2eds/bin/gnu/h-x86_64-mingw32/bin/../lib/gcc/nios2-elf/12.3.1/../../../../../H-x86_64-mingw32/nios2-elf/lib\libm.a(libm_a-w_exp.o)
 .debug_frame   0x000003ec       0x20 c:/intelfpga_lite/23.1std/nios2eds/bin/gnu/h-x86_64-mingw32/bin/../lib/gcc/nios2-elf/12.3.1/../../../../../H-x86_64-mingw32/nios2-elf/lib\libm.a(libm_a-s_finite.o)
 .debug_frame   0x0000040c       0x88 c:/intelfpga_lite/23.1std/nios2eds/bin/gnu/h-x86_64-mingw32/bin/../lib/gcc/nios2-elf/12.3.1/../../../../../H-x86_64-mingw32/nios2-elf/lib\libm.a(libm_a-e_exp.o)
 .debug_frame   0x00000494      0x150 c:/intelfpga_lite/23.1std/nios2eds/bin/gnu/h-x86_64-mingw32/bin/../lib/gcc/nios2-elf/12.3.1/../../../../../H-x86_64-mingw32/nios2-elf/lib\libm.a(libm_a-math_err.o)
 .debug_frame   0x000005e4       0x50 c:/intelfpga_lite/23.1std/nios2eds/bin/gnu/h-x86_64-mingw32/bin/../lib/gcc/nios2-elf/12.3.1\libgcc.a(lib2-divmod.o)
 .debug_frame   0x00000634       0x3c c:/intelfpga_lite/23.1std/nios2eds/bin/gnu/h-x86_64-mingw32/bin/../lib/gcc/nios2-elf/12.3.1\libgcc.a(addsf3.o)
 .debug_frame   0x00000670       0x54 c:/intelfpga_lite/23.1std/nios2eds/bin/gnu/h-x86_64-mingw32/bin/../lib/gcc/nios2-elf/12.3.1\libgcc.a(divsf3.o)
 .debug_frame   0x000006c4       0x20 c:/intelfpga_lite/23.1std/nios2eds/bin/gnu/h-x86_64-mingw32/bin/../lib/gcc/nios2-elf/12.3.1\libgcc.a(gesf2.o)
 .debug_frame   0x000006e4       0x20 c:/intelfpga_lite/23.1std/nios2eds/bin/gnu/h-x86_64-mingw32/bin/../lib/gcc/nios2-elf/12.3.1\libgcc.a(lesf2.o)
 .debug_frame   0x00000704       0x50 c:/intelfpga_lite/23.1std/nios2eds/bin/gnu/h-x86_64-mingw32/bin/../lib/gcc/nios2-elf/12.3.1\libgcc.a(mulsf3.o)
 .debug_frame   0x00000754       0x3c c:/intelfpga_lite/23.1std/nios2eds/bin/gnu/h-x86_64-mingw32/bin/../lib/gcc/nios2-elf/12.3.1\libgcc.a(subsf3.o)
 .debug_frame   0x00000790       0x38 c:/intelfpga_lite/23.1std/nios2eds/bin/gnu/h-x86_64-mingw32/bin/../lib/gcc/nios2-elf/12.3.1\libgcc.a(floatunsisf.o)
 .debug_frame   0x000007c8       0x48 c:/intelfpga_lite/23.1std/nios2eds/bin/gnu/h-x86_64-mingw32/bin/../lib/gcc/nios2-elf/12.3.1\libgcc.a(adddf3.o)
 .debug_frame   0x00000810       0x54 c:/intelfpga_lite/23.1std/nios2eds/bin/gnu/h-x86_64-mingw32/bin/../lib/gcc/nios2-elf/12.3.1\libgcc.a(divdf3.o)
 .debug_frame   0x00000864       0x20 c:/intelfpga_lite/23.1std/nios2eds/bin/gnu/h-x86_64-mingw32/bin/../lib/gcc/nios2-elf/12.3.1\libgcc.a(eqdf2.o)
 .debug_frame   0x00000884       0x20 c:/intelfpga_lite/23.1std/nios2eds/bin/gnu/h-x86_64-mingw32/bin/../lib/gcc/nios2-elf/12.3.1\libgcc.a(gedf2.o)
 .debug_frame   0x000008a4       0x20 c:/intelfpga_lite/23.1std/nios2eds/bin/gnu/h-x86_64-mingw32/bin/../lib/gcc/nios2-elf/12.3.1\libgcc.a(ledf2.o)
 .debug_frame   0x000008c4       0x54 c:/intelfpga_lite/23.1std/nios2eds/bin/gnu/h-x86_64-mingw32/bin/../lib/gcc/nios2-elf/12.3.1\libgcc.a(muldf3.o)
 .debug_frame   0x00000918       0x48 c:/intelfpga_lite/23.1std/nios2eds/bin/gnu/h-x86_64-mingw32/bin/../lib/gcc/nios2-elf/12.3.1\libgcc.a(subdf3.o)
 .debug_frame   0x00000960       0x20 c:/intelfpga_lite/23.1std/nios2eds/bin/gnu/h-x86_64-mingw32/bin/../lib/gcc/nios2-elf/12.3.1\libgcc.a(unorddf2.o)
 .debug_frame   0x00000980       0x20 c:/intelfpga_lite/23.1std/nios2eds/bin/gnu/h-x86_64-mingw32/bin/../lib/gcc/nios2-elf/12.3.1\libgcc.a(fixdfsi.o)
 .debug_frame   0x000009a0       0x38 c:/intelfpga_lite/23.1std/nios2eds/bin/gnu/h-x86_64-mingw32/bin/../lib/gcc/nios2-elf/12.3.1\libgcc.a(floatsidf.o)
 .debug_frame   0x000009d8       0x38 c:/intelfpga_lite/23.1std/nios2eds/bin/gnu/h-x86_64-mingw32/bin/../lib/gcc/nios2-elf/12.3.1\libgcc.a(extendsfdf2.o)
 .debug_frame   0x00000a10       0x20 c:/intelfpga_lite/23.1std/nios2eds/bin/gnu/h-x86_64-mingw32/bin/../lib/gcc/nios2-elf/12.3.1\libgcc.a(truncdfsf2.o)
 .debug_frame   0x00000a30       0x20 c:/intelfpga_lite/23.1std/nios2eds/bin/gnu/h-x86_64-mingw32/bin/../lib/gcc/nios2-elf/12.3.1\libgcc.a(_clzsi2.o)
 .debug_frame   0x00000a50       0x28 c:/intelfpga_lite/23.1std/nios2eds/bin/gnu/h-x86_64-mingw32/bin/../lib/gcc/nios2-elf/12.3.1/../../../../../H-x86_64-mingw32/nios2-elf/lib\libc.a(libc_a-exit.o)
 .debug_frame   0x00000a78       0x4c c:/intelfpga_lite/23.1std/nios2eds/bin/gnu/h-x86_64-mingw32/bin/../lib/gcc/nios2-elf/12.3.1/../../../../../H-x86_64-mingw32/nios2-elf/lib\libc.a(libc_a-fclose.o)
 .debug_frame   0x00000ac4       0x94 c:/intelfpga_lite/23.1std/nios2eds/bin/gnu/h-x86_64-mingw32/bin/../lib/gcc/nios2-elf/12.3.1/../../../../../H-x86_64-mingw32/nios2-elf/lib\libc.a(libc_a-fflush.o)
 .debug_frame   0x00000b58      0x11c c:/intelfpga_lite/23.1std/nios2eds/bin/gnu/h-x86_64-mingw32/bin/../lib/gcc/nios2-elf/12.3.1/../../../../../H-x86_64-mingw32/nios2-elf/lib\libc.a(libc_a-findfp.o)
 .debug_frame   0x00000c74       0x50 c:/intelfpga_lite/23.1std/nios2eds/bin/gnu/h-x86_64-mingw32/bin/../lib/gcc/nios2-elf/12.3.1/../../../../../H-x86_64-mingw32/nios2-elf/lib\libc.a(libc_a-fopen.o)
 .debug_frame   0x00000cc4       0x70 c:/intelfpga_lite/23.1std/nios2eds/bin/gnu/h-x86_64-mingw32/bin/../lib/gcc/nios2-elf/12.3.1/../../../../../H-x86_64-mingw32/nios2-elf/lib\libc.a(libc_a-fread.o)
 .debug_frame   0x00000d34       0x30 c:/intelfpga_lite/23.1std/nios2eds/bin/gnu/h-x86_64-mingw32/bin/../lib/gcc/nios2-elf/12.3.1/../../../../../H-x86_64-mingw32/nios2-elf/lib\libc.a(libc_a-fseek.o)
 .debug_frame   0x00000d64       0x44 c:/intelfpga_lite/23.1std/nios2eds/bin/gnu/h-x86_64-mingw32/bin/../lib/gcc/nios2-elf/12.3.1/../../../../../H-x86_64-mingw32/nios2-elf/lib\libc.a(libc_a-fwalk.o)
 .debug_frame   0x00000da8       0x48 c:/intelfpga_lite/23.1std/nios2eds/bin/gnu/h-x86_64-mingw32/bin/../lib/gcc/nios2-elf/12.3.1/../../../../../H-x86_64-mingw32/nios2-elf/lib\libc.a(libc_a-printf.o)
 .debug_frame   0x00000df0       0x30 c:/intelfpga_lite/23.1std/nios2eds/bin/gnu/h-x86_64-mingw32/bin/../lib/gcc/nios2-elf/12.3.1/../../../../../H-x86_64-mingw32/nios2-elf/lib\libc.a(libc_a-putchar.o)
 .debug_frame   0x00000e20       0x48 c:/intelfpga_lite/23.1std/nios2eds/bin/gnu/h-x86_64-mingw32/bin/../lib/gcc/nios2-elf/12.3.1/../../../../../H-x86_64-mingw32/nios2-elf/lib\libc.a(libc_a-puts.o)
 .debug_frame   0x00000e68       0x4c c:/intelfpga_lite/23.1std/nios2eds/bin/gnu/h-x86_64-mingw32/bin/../lib/gcc/nios2-elf/12.3.1/../../../../../H-x86_64-mingw32/nios2-elf/lib\libc.a(libc_a-refill.o)
 .debug_frame   0x00000eb4       0xb8 c:/intelfpga_lite/23.1std/nios2eds/bin/gnu/h-x86_64-mingw32/bin/../lib/gcc/nios2-elf/12.3.1/../../../../../H-x86_64-mingw32/nios2-elf/lib\libc.a(libc_a-stdio.o)
 .debug_frame   0x00000f6c       0x60 c:/intelfpga_lite/23.1std/nios2eds/bin/gnu/h-x86_64-mingw32/bin/../lib/gcc/nios2-elf/12.3.1/../../../../../H-x86_64-mingw32/nios2-elf/lib\libc.a(libc_a-fseeko.o)
 .debug_frame   0x00000fcc       0x20 c:/intelfpga_lite/23.1std/nios2eds/bin/gnu/h-x86_64-mingw32/bin/../lib/gcc/nios2-elf/12.3.1/../../../../../H-x86_64-mingw32/nios2-elf/lib\libc.a(libc_a-memcpy.o)
 .debug_frame   0x00000fec       0x20 c:/intelfpga_lite/23.1std/nios2eds/bin/gnu/h-x86_64-mingw32/bin/../lib/gcc/nios2-elf/12.3.1/../../../../../H-x86_64-mingw32/nios2-elf/lib\libc.a(libc_a-memset.o)
 .debug_frame   0x0000100c       0x20 c:/intelfpga_lite/23.1std/nios2eds/bin/gnu/h-x86_64-mingw32/bin/../lib/gcc/nios2-elf/12.3.1/../../../../../H-x86_64-mingw32/nios2-elf/lib\libc.a(libc_a-strlen.o)
 .debug_frame   0x0000102c       0x3c c:/intelfpga_lite/23.1std/nios2eds/bin/gnu/h-x86_64-mingw32/bin/../lib/gcc/nios2-elf/12.3.1/../../../../../H-x86_64-mingw32/nios2-elf/lib\libc.a(libc_a-closer.o)
 .debug_frame   0x00001068       0x48 c:/intelfpga_lite/23.1std/nios2eds/bin/gnu/h-x86_64-mingw32/bin/../lib/gcc/nios2-elf/12.3.1/../../../../../H-x86_64-mingw32/nios2-elf/lib\libc.a(libc_a-reent.o)
 .debug_frame   0x000010b0       0x3c c:/intelfpga_lite/23.1std/nios2eds/bin/gnu/h-x86_64-mingw32/bin/../lib/gcc/nios2-elf/12.3.1/../../../../../H-x86_64-mingw32/nios2-elf/lib\libc.a(libc_a-fstatr.o)
 .debug_frame   0x000010ec       0x3c c:/intelfpga_lite/23.1std/nios2eds/bin/gnu/h-x86_64-mingw32/bin/../lib/gcc/nios2-elf/12.3.1/../../../../../H-x86_64-mingw32/nios2-elf/lib\libc.a(libc_a-lseekr.o)
 .debug_frame   0x00001128       0x3c c:/intelfpga_lite/23.1std/nios2eds/bin/gnu/h-x86_64-mingw32/bin/../lib/gcc/nios2-elf/12.3.1/../../../../../H-x86_64-mingw32/nios2-elf/lib\libc.a(libc_a-openr.o)
 .debug_frame   0x00001164       0x3c c:/intelfpga_lite/23.1std/nios2eds/bin/gnu/h-x86_64-mingw32/bin/../lib/gcc/nios2-elf/12.3.1/../../../../../H-x86_64-mingw32/nios2-elf/lib\libc.a(libc_a-readr.o)
 .debug_frame   0x000011a0       0x3c c:/intelfpga_lite/23.1std/nios2eds/bin/gnu/h-x86_64-mingw32/bin/../lib/gcc/nios2-elf/12.3.1/../../../../../H-x86_64-mingw32/nios2-elf/lib\libc.a(libc_a-writer.o)
 .debug_frame   0x000011dc       0x20 c:/intelfpga_lite/23.1std/nios2eds/bin/gnu/h-x86_64-mingw32/bin/../lib/gcc/nios2-elf/12.3.1/../../../../../H-x86_64-mingw32/nios2-elf/lib\libc.a(libc_a-errno.o)
 .debug_frame   0x000011fc       0x4c c:/intelfpga_lite/23.1std/nios2eds/bin/gnu/h-x86_64-mingw32/bin/../lib/gcc/nios2-elf/12.3.1/../../../../../H-x86_64-mingw32/nios2-elf/lib\libc.a(libc_a-__call_atexit.o)
 .debug_frame   0x00001248       0x80 c:/intelfpga_lite/23.1std/nios2eds/bin/gnu/h-x86_64-mingw32/bin/../lib/gcc/nios2-elf/12.3.1/../../../../../H-x86_64-mingw32/nios2-elf/lib\libc.a(libc_a-freer.o)
 .debug_frame   0x000012c8       0x54 c:/intelfpga_lite/23.1std/nios2eds/bin/gnu/h-x86_64-mingw32/bin/../lib/gcc/nios2-elf/12.3.1/../../../../../H-x86_64-mingw32/nios2-elf/lib\libc.a(libc_a-mallocr.o)
 .debug_frame   0x0000131c       0xb4 c:/intelfpga_lite/23.1std/nios2eds/bin/gnu/h-x86_64-mingw32/bin/../lib/gcc/nios2-elf/12.3.1/../../../../../H-x86_64-mingw32/nios2-elf/lib\libc.a(libc_a-vfprintf.o)
 .debug_frame   0x000013d0      0x104 c:/intelfpga_lite/23.1std/nios2eds/bin/gnu/h-x86_64-mingw32/bin/../lib/gcc/nios2-elf/12.3.1/../../../../../H-x86_64-mingw32/nios2-elf/lib\libc.a(libc_a-vfiprintf.o)
 .debug_frame   0x000014d4       0x20 c:/intelfpga_lite/23.1std/nios2eds/bin/gnu/h-x86_64-mingw32/bin/../lib/gcc/nios2-elf/12.3.1/../../../../../H-x86_64-mingw32/nios2-elf/lib\libc.a(libc_a-flags.o)
 .debug_frame   0x000014f4       0x78 c:/intelfpga_lite/23.1std/nios2eds/bin/gnu/h-x86_64-mingw32/bin/../lib/gcc/nios2-elf/12.3.1/../../../../../H-x86_64-mingw32/nios2-elf/lib\libc.a(libc_a-fvwrite.o)
 .debug_frame   0x0000156c       0x6c c:/intelfpga_lite/23.1std/nios2eds/bin/gnu/h-x86_64-mingw32/bin/../lib/gcc/nios2-elf/12.3.1/../../../../../H-x86_64-mingw32/nios2-elf/lib\libc.a(libc_a-makebuf.o)
 .debug_frame   0x000015d8       0x7c c:/intelfpga_lite/23.1std/nios2eds/bin/gnu/h-x86_64-mingw32/bin/../lib/gcc/nios2-elf/12.3.1/../../../../../H-x86_64-mingw32/nios2-elf/lib\libc.a(libc_a-putc.o)
 .debug_frame   0x00001654       0x50 c:/intelfpga_lite/23.1std/nios2eds/bin/gnu/h-x86_64-mingw32/bin/../lib/gcc/nios2-elf/12.3.1/../../../../../H-x86_64-mingw32/nios2-elf/lib\libc.a(libc_a-wbuf.o)
 .debug_frame   0x000016a4       0x38 c:/intelfpga_lite/23.1std/nios2eds/bin/gnu/h-x86_64-mingw32/bin/../lib/gcc/nios2-elf/12.3.1/../../../../../H-x86_64-mingw32/nios2-elf/lib\libc.a(libc_a-wsetup.o)
 .debug_frame   0x000016dc       0x78 c:/intelfpga_lite/23.1std/nios2eds/bin/gnu/h-x86_64-mingw32/bin/../lib/gcc/nios2-elf/12.3.1/../../../../../H-x86_64-mingw32/nios2-elf/lib\libc.a(libc_a-fputwc.o)
 .debug_frame   0x00001754       0x20 c:/intelfpga_lite/23.1std/nios2eds/bin/gnu/h-x86_64-mingw32/bin/../lib/gcc/nios2-elf/12.3.1/../../../../../H-x86_64-mingw32/nios2-elf/lib\libc.a(libc_a-memchr.o)
 .debug_frame   0x00001774       0x20 c:/intelfpga_lite/23.1std/nios2eds/bin/gnu/h-x86_64-mingw32/bin/../lib/gcc/nios2-elf/12.3.1/../../../../../H-x86_64-mingw32/nios2-elf/lib\libc.a(libc_a-memmove.o)
 .debug_frame   0x00001794       0x70 c:/intelfpga_lite/23.1std/nios2eds/bin/gnu/h-x86_64-mingw32/bin/../lib/gcc/nios2-elf/12.3.1/../../../../../H-x86_64-mingw32/nios2-elf/lib\libc.a(libc_a-locale.o)
 .debug_frame   0x00001804       0x40 c:/intelfpga_lite/23.1std/nios2eds/bin/gnu/h-x86_64-mingw32/bin/../lib/gcc/nios2-elf/12.3.1/../../../../../H-x86_64-mingw32/nios2-elf/lib\libc.a(libc_a-localeconv.o)
 .debug_frame   0x00001844       0x3c c:/intelfpga_lite/23.1std/nios2eds/bin/gnu/h-x86_64-mingw32/bin/../lib/gcc/nios2-elf/12.3.1/../../../../../H-x86_64-mingw32/nios2-elf/lib\libc.a(libc_a-isattyr.o)
 .debug_frame   0x00001880       0x3c c:/intelfpga_lite/23.1std/nios2eds/bin/gnu/h-x86_64-mingw32/bin/../lib/gcc/nios2-elf/12.3.1/../../../../../H-x86_64-mingw32/nios2-elf/lib\libc.a(libc_a-sbrkr.o)
 .debug_frame   0x000018bc       0x9c c:/intelfpga_lite/23.1std/nios2eds/bin/gnu/h-x86_64-mingw32/bin/../lib/gcc/nios2-elf/12.3.1/../../../../../H-x86_64-mingw32/nios2-elf/lib\libc.a(libc_a-dtoa.o)
 .debug_frame   0x00001958       0x40 c:/intelfpga_lite/23.1std/nios2eds/bin/gnu/h-x86_64-mingw32/bin/../lib/gcc/nios2-elf/12.3.1/../../../../../H-x86_64-mingw32/nios2-elf/lib\libc.a(libc_a-mbtowc_r.o)
 .debug_frame   0x00001998      0x2d4 c:/intelfpga_lite/23.1std/nios2eds/bin/gnu/h-x86_64-mingw32/bin/../lib/gcc/nios2-elf/12.3.1/../../../../../H-x86_64-mingw32/nios2-elf/lib\libc.a(libc_a-mprec.o)
 .debug_frame   0x00001c6c       0x70 c:/intelfpga_lite/23.1std/nios2eds/bin/gnu/h-x86_64-mingw32/bin/../lib/gcc/nios2-elf/12.3.1/../../../../../H-x86_64-mingw32/nios2-elf/lib\libc.a(libc_a-reallocr.o)
 .debug_frame   0x00001cdc       0x30 c:/intelfpga_lite/23.1std/nios2eds/bin/gnu/h-x86_64-mingw32/bin/../lib/gcc/nios2-elf/12.3.1/../../../../../H-x86_64-mingw32/nios2-elf/lib\libc.a(libc_a-wctomb_r.o)
 .debug_frame   0x00001d0c       0x60 c:/intelfpga_lite/23.1std/nios2eds/bin/gnu/h-x86_64-mingw32/bin/../lib/gcc/nios2-elf/12.3.1/../../../../../H-x86_64-mingw32/nios2-elf/lib\libc.a(libc_a-wcrtomb.o)
 .debug_frame   0x00001d6c       0x20 c:/intelfpga_lite/23.1std/nios2eds/bin/gnu/h-x86_64-mingw32/bin/../lib/gcc/nios2-elf/12.3.1/../../../../../H-x86_64-mingw32/nios2-elf/lib\libc.a(libc_a-strcmp.o)
 .debug_frame   0x00001d8c       0x40 c:/intelfpga_lite/23.1std/nios2eds/bin/gnu/h-x86_64-mingw32/bin/../lib/gcc/nios2-elf/12.3.1/../../../../../H-x86_64-mingw32/nios2-elf/lib\libc.a(libc_a-assert.o)
 .debug_frame   0x00001dcc       0x34 c:/intelfpga_lite/23.1std/nios2eds/bin/gnu/h-x86_64-mingw32/bin/../lib/gcc/nios2-elf/12.3.1/../../../../../H-x86_64-mingw32/nios2-elf/lib\libc.a(libc_a-callocr.o)
 .debug_frame   0x00001e00       0x48 c:/intelfpga_lite/23.1std/nios2eds/bin/gnu/h-x86_64-mingw32/bin/../lib/gcc/nios2-elf/12.3.1/../../../../../H-x86_64-mingw32/nios2-elf/lib\libc.a(libc_a-fiprintf.o)
 .debug_frame   0x00001e48       0x20 c:/intelfpga_lite/23.1std/nios2eds/bin/gnu/h-x86_64-mingw32/bin/../lib/gcc/nios2-elf/12.3.1/../../../../../H-x86_64-mingw32/nios2-elf/lib\libc.a(libc_a-vfiprintfr_1.o)
 .debug_frame   0x00001e68       0x28 c:/intelfpga_lite/23.1std/nios2eds/bin/gnu/h-x86_64-mingw32/bin/../lib/gcc/nios2-elf/12.3.1/../../../../../H-x86_64-mingw32/nios2-elf/lib\libc.a(libc_a-abort.o)
 .debug_frame   0x00001e90      0x16c c:/intelfpga_lite/23.1std/nios2eds/bin/gnu/h-x86_64-mingw32/bin/../lib/gcc/nios2-elf/12.3.1/../../../../../H-x86_64-mingw32/nios2-elf/lib\libc.a(libc_a-signal.o)
 .debug_frame   0x00001ffc       0x4c c:/intelfpga_lite/23.1std/nios2eds/bin/gnu/h-x86_64-mingw32/bin/../lib/gcc/nios2-elf/12.3.1/../../../../../H-x86_64-mingw32/nios2-elf/lib\libc.a(libc_a-signalr.o)
 .debug_frame   0x00002048       0x54 c:/intelfpga_lite/23.1std/nios2eds/bin/gnu/h-x86_64-mingw32/bin/../lib/gcc/nios2-elf/12.3.1\libgcc.a(_udivdi3.o)
 .debug_frame   0x0000209c       0x54 c:/intelfpga_lite/23.1std/nios2eds/bin/gnu/h-x86_64-mingw32/bin/../lib/gcc/nios2-elf/12.3.1\libgcc.a(_umoddi3.o)
 .debug_frame   0x000020f0       0x34 c:/intelfpga_lite/23.1std/nios2eds/bin/gnu/h-x86_64-mingw32/bin/../lib/gcc/nios2-elf/12.3.1\libgcc.a(floatunsidf.o)
 .debug_frame   0x00002124       0x38 c:/Users/pedro/OneDrive/Documentos/CNN-paralel/Software/c0_bsp/\libhal_bsp.a(alt_close.o)
 .debug_frame   0x0000215c       0x20 c:/Users/pedro/OneDrive/Documentos/CNN-paralel/Software/c0_bsp/\libhal_bsp.a(alt_dev.o)
 .debug_frame   0x0000217c       0x2c c:/Users/pedro/OneDrive/Documentos/CNN-paralel/Software/c0_bsp/\libhal_bsp.a(alt_fstat.o)
 .debug_frame   0x000021a8       0x34 c:/Users/pedro/OneDrive/Documentos/CNN-paralel/Software/c0_bsp/\libhal_bsp.a(alt_getpid.o)
 .debug_frame   0x000021dc       0x30 c:/Users/pedro/OneDrive/Documentos/CNN-paralel/Software/c0_bsp/\libhal_bsp.a(alt_isatty.o)
 .debug_frame   0x0000220c       0x60 c:/Users/pedro/OneDrive/Documentos/CNN-paralel/Software/c0_bsp/\libhal_bsp.a(alt_kill.o)
 .debug_frame   0x0000226c       0x5c c:/Users/pedro/OneDrive/Documentos/CNN-paralel/Software/c0_bsp/\libhal_bsp.a(alt_load.o)
 .debug_frame   0x000022c8       0x34 c:/Users/pedro/OneDrive/Documentos/CNN-paralel/Software/c0_bsp/\libhal_bsp.a(alt_lseek.o)
 .debug_frame   0x000022fc       0x2c c:/Users/pedro/OneDrive/Documentos/CNN-paralel/Software/c0_bsp/\libhal_bsp.a(alt_main.o)
 .debug_frame   0x00002328       0x58 c:/Users/pedro/OneDrive/Documentos/CNN-paralel/Software/c0_bsp/\libhal_bsp.a(alt_malloc_lock.o)
 .debug_frame   0x00002380       0x48 c:/Users/pedro/OneDrive/Documentos/CNN-paralel/Software/c0_bsp/\libhal_bsp.a(alt_open.o)
 .debug_frame   0x000023c8       0x44 c:/Users/pedro/OneDrive/Documentos/CNN-paralel/Software/c0_bsp/\libhal_bsp.a(alt_read.o)
 .debug_frame   0x0000240c       0x20 c:/Users/pedro/OneDrive/Documentos/CNN-paralel/Software/c0_bsp/\libhal_bsp.a(alt_release_fd.o)
 .debug_frame   0x0000242c       0x20 c:/Users/pedro/OneDrive/Documentos/CNN-paralel/Software/c0_bsp/\libhal_bsp.a(alt_sbrk.o)
 .debug_frame   0x0000244c       0x44 c:/Users/pedro/OneDrive/Documentos/CNN-paralel/Software/c0_bsp/\libhal_bsp.a(alt_write.o)
 .debug_frame   0x00002490       0x48 c:/Users/pedro/OneDrive/Documentos/CNN-paralel/Software/c0_bsp/\libhal_bsp.a(alt_sys_init.o)
 .debug_frame   0x000024d8       0x30 c:/Users/pedro/OneDrive/Documentos/CNN-paralel/Software/c0_bsp/\libhal_bsp.a(altera_avalon_jtag_uart_fd.o)
 .debug_frame   0x00002508       0x20 c:/Users/pedro/OneDrive/Documentos/CNN-paralel/Software/c0_bsp/\libhal_bsp.a(altera_avalon_jtag_uart_read.o)
 .debug_frame   0x00002528       0x20 c:/Users/pedro/OneDrive/Documentos/CNN-paralel/Software/c0_bsp/\libhal_bsp.a(altera_avalon_jtag_uart_write.o)
 .debug_frame   0x00002548       0x88 c:/Users/pedro/OneDrive/Documentos/CNN-paralel/Software/c0_bsp/\libhal_bsp.a(altera_hostfs.o)
 .debug_frame   0x000025d0       0x20 c:/Users/pedro/OneDrive/Documentos/CNN-paralel/Software/c0_bsp/\libhal_bsp.a(alt_dcache_flush_all.o)
 .debug_frame   0x000025f0       0x60 c:/Users/pedro/OneDrive/Documentos/CNN-paralel/Software/c0_bsp/\libhal_bsp.a(alt_dev_llist_insert.o)
 .debug_frame   0x00002650       0x40 c:/Users/pedro/OneDrive/Documentos/CNN-paralel/Software/c0_bsp/\libhal_bsp.a(alt_find_dev.o)
 .debug_frame   0x00002690       0x40 c:/Users/pedro/OneDrive/Documentos/CNN-paralel/Software/c0_bsp/\libhal_bsp.a(alt_find_file.o)
 .debug_frame   0x000026d0       0x20 c:/Users/pedro/OneDrive/Documentos/CNN-paralel/Software/c0_bsp/\libhal_bsp.a(alt_fs_reg.o)
 .debug_frame   0x000026f0       0x20 c:/Users/pedro/OneDrive/Documentos/CNN-paralel/Software/c0_bsp/\libhal_bsp.a(alt_get_fd.o)
 .debug_frame   0x00002710       0x20 c:/Users/pedro/OneDrive/Documentos/CNN-paralel/Software/c0_bsp/\libhal_bsp.a(alt_icache_flush_all.o)
 .debug_frame   0x00002730       0x64 c:/Users/pedro/OneDrive/Documentos/CNN-paralel/Software/c0_bsp/\libhal_bsp.a(alt_io_redirect.o)
 .debug_frame   0x00002794       0x20 c:/Users/pedro/OneDrive/Documentos/CNN-paralel/Software/c0_bsp/\libhal_bsp.a(altera_nios2_gen2_irq.o)
 .debug_frame   0x000027b4       0x20 c:/intelfpga_lite/23.1std/nios2eds/bin/gnu/h-x86_64-mingw32/bin/../lib/gcc/nios2-elf/12.3.1/../../../../../H-x86_64-mingw32/nios2-elf/lib\libc.a(libc_a-memcmp.o)

.debug_str      0x00000000     0x2714
 *(.debug_str)
 .debug_str     0x00000000       0x65 c:/Users/pedro/OneDrive/Documentos/CNN-paralel/Software/c0_bsp//obj/HAL/src/crt0.o
                                 0x6c (size before relaxing)
 .debug_str     0x00000065      0x135 obj/default/image.o
                                0x188 (size before relaxing)
 .debug_str     0x0000019a      0x52a obj/default/main.o
                                0x74b (size before relaxing)
 .debug_str     0x000006c4       0xa4 c:/intelfpga_lite/23.1std/nios2eds/bin/gnu/h-x86_64-mingw32/bin/../lib/gcc/nios2-elf/12.3.1/../../../../../H-x86_64-mingw32/nios2-elf/lib\libm.a(libm_a-w_exp.o)
                                0x146 (size before relaxing)
 .debug_str     0x00000768       0xa3 c:/intelfpga_lite/23.1std/nios2eds/bin/gnu/h-x86_64-mingw32/bin/../lib/gcc/nios2-elf/12.3.1/../../../../../H-x86_64-mingw32/nios2-elf/lib\libm.a(libm_a-s_finite.o)
                                0x152 (size before relaxing)
 .debug_str     0x0000080b       0x84 c:/intelfpga_lite/23.1std/nios2eds/bin/gnu/h-x86_64-mingw32/bin/../lib/gcc/nios2-elf/12.3.1/../../../../../H-x86_64-mingw32/nios2-elf/lib\libm.a(libm_a-e_exp.o)
                                0x201 (size before relaxing)
 .debug_str     0x0000088f       0x94 c:/intelfpga_lite/23.1std/nios2eds/bin/gnu/h-x86_64-mingw32/bin/../lib/gcc/nios2-elf/12.3.1/../../../../../H-x86_64-mingw32/nios2-elf/lib\libm.a(libm_a-math_err.o)
                                0x1f8 (size before relaxing)
 .debug_str     0x00000923       0xb9 c:/intelfpga_lite/23.1std/nios2eds/bin/gnu/h-x86_64-mingw32/bin/../lib/gcc/nios2-elf/12.3.1\libgcc.a(lib2-divmod.o)
                                0x116 (size before relaxing)
 .debug_str     0x000009dc      0x118 c:/intelfpga_lite/23.1std/nios2eds/bin/gnu/h-x86_64-mingw32/bin/../lib/gcc/nios2-elf/12.3.1\libgcc.a(addsf3.o)
                                0x22e (size before relaxing)
 .debug_str     0x00000af4       0xf4 c:/intelfpga_lite/23.1std/nios2eds/bin/gnu/h-x86_64-mingw32/bin/../lib/gcc/nios2-elf/12.3.1\libgcc.a(divsf3.o)
                                0x253 (size before relaxing)
 .debug_str     0x00000be8       0x3d c:/intelfpga_lite/23.1std/nios2eds/bin/gnu/h-x86_64-mingw32/bin/../lib/gcc/nios2-elf/12.3.1\libgcc.a(gesf2.o)
                                0x177 (size before relaxing)
 .debug_str     0x00000c25        0x8 c:/intelfpga_lite/23.1std/nios2eds/bin/gnu/h-x86_64-mingw32/bin/../lib/gcc/nios2-elf/12.3.1\libgcc.a(lesf2.o)
                                0x177 (size before relaxing)
 .debug_str     0x00000c2d       0x62 c:/intelfpga_lite/23.1std/nios2eds/bin/gnu/h-x86_64-mingw32/bin/../lib/gcc/nios2-elf/12.3.1\libgcc.a(mulsf3.o)
                                0x253 (size before relaxing)
 .debug_str     0x00000c8f      0x22e c:/intelfpga_lite/23.1std/nios2eds/bin/gnu/h-x86_64-mingw32/bin/../lib/gcc/nios2-elf/12.3.1\libgcc.a(subsf3.o)
 .debug_str     0x00000c8f       0x2d c:/intelfpga_lite/23.1std/nios2eds/bin/gnu/h-x86_64-mingw32/bin/../lib/gcc/nios2-elf/12.3.1\libgcc.a(floatunsisf.o)
                                0x1f1 (size before relaxing)
 .debug_str     0x00000cbc       0x91 c:/intelfpga_lite/23.1std/nios2eds/bin/gnu/h-x86_64-mingw32/bin/../lib/gcc/nios2-elf/12.3.1\libgcc.a(adddf3.o)
                                0x26b (size before relaxing)
 .debug_str     0x00000d4d       0xfd c:/intelfpga_lite/23.1std/nios2eds/bin/gnu/h-x86_64-mingw32/bin/../lib/gcc/nios2-elf/12.3.1\libgcc.a(divdf3.o)
                                0x341 (size before relaxing)
 .debug_str     0x00000e4a        0x8 c:/intelfpga_lite/23.1std/nios2eds/bin/gnu/h-x86_64-mingw32/bin/../lib/gcc/nios2-elf/12.3.1\libgcc.a(eqdf2.o)
                                0x16f (size before relaxing)
 .debug_str     0x00000e52        0x8 c:/intelfpga_lite/23.1std/nios2eds/bin/gnu/h-x86_64-mingw32/bin/../lib/gcc/nios2-elf/12.3.1\libgcc.a(gedf2.o)
                                0x193 (size before relaxing)
 .debug_str     0x00000e5a      0x193 c:/intelfpga_lite/23.1std/nios2eds/bin/gnu/h-x86_64-mingw32/bin/../lib/gcc/nios2-elf/12.3.1\libgcc.a(ledf2.o)
 .debug_str     0x00000e5a      0x125 c:/intelfpga_lite/23.1std/nios2eds/bin/gnu/h-x86_64-mingw32/bin/../lib/gcc/nios2-elf/12.3.1\libgcc.a(muldf3.o)
                                0x385 (size before relaxing)
 .debug_str     0x00000f7f      0x26b c:/intelfpga_lite/23.1std/nios2eds/bin/gnu/h-x86_64-mingw32/bin/../lib/gcc/nios2-elf/12.3.1\libgcc.a(subdf3.o)
 .debug_str     0x00000f7f      0x172 c:/intelfpga_lite/23.1std/nios2eds/bin/gnu/h-x86_64-mingw32/bin/../lib/gcc/nios2-elf/12.3.1\libgcc.a(unorddf2.o)
 .debug_str     0x00000f7f       0x13 c:/intelfpga_lite/23.1std/nios2eds/bin/gnu/h-x86_64-mingw32/bin/../lib/gcc/nios2-elf/12.3.1\libgcc.a(fixdfsi.o)
                                0x178 (size before relaxing)
 .debug_str     0x00000f92      0x21a c:/intelfpga_lite/23.1std/nios2eds/bin/gnu/h-x86_64-mingw32/bin/../lib/gcc/nios2-elf/12.3.1\libgcc.a(floatsidf.o)
 .debug_str     0x00000f92        0xd c:/intelfpga_lite/23.1std/nios2eds/bin/gnu/h-x86_64-mingw32/bin/../lib/gcc/nios2-elf/12.3.1\libgcc.a(extendsfdf2.o)
                                0x1a1 (size before relaxing)
 .debug_str     0x00000f9f      0x1f7 c:/intelfpga_lite/23.1std/nios2eds/bin/gnu/h-x86_64-mingw32/bin/../lib/gcc/nios2-elf/12.3.1\libgcc.a(truncdfsf2.o)
 .debug_str     0x00000f9f       0x34 c:/intelfpga_lite/23.1std/nios2eds/bin/gnu/h-x86_64-mingw32/bin/../lib/gcc/nios2-elf/12.3.1\libgcc.a(_clzsi2.o)
                                0x151 (size before relaxing)
 .debug_str     0x00000fd3      0x134 c:/intelfpga_lite/23.1std/nios2eds/bin/gnu/h-x86_64-mingw32/bin/../lib/gcc/nios2-elf/12.3.1\libgcc.a(_clz.o)
 .debug_str     0x00000fd3       0x95 c:/intelfpga_lite/23.1std/nios2eds/bin/gnu/h-x86_64-mingw32/bin/../lib/gcc/nios2-elf/12.3.1/../../../../../H-x86_64-mingw32/nios2-elf/lib\libc.a(libc_a-exit.o)
                                0x135 (size before relaxing)
 .debug_str     0x00001068       0x6c c:/intelfpga_lite/23.1std/nios2eds/bin/gnu/h-x86_64-mingw32/bin/../lib/gcc/nios2-elf/12.3.1/../../../../../H-x86_64-mingw32/nios2-elf/lib\libc.a(libc_a-fclose.o)
                                0x480 (size before relaxing)
 .debug_str     0x000010d4       0x57 c:/intelfpga_lite/23.1std/nios2eds/bin/gnu/h-x86_64-mingw32/bin/../lib/gcc/nios2-elf/12.3.1/../../../../../H-x86_64-mingw32/nios2-elf/lib\libc.a(libc_a-fflush.o)
                                0x4a8 (size before relaxing)
 .debug_str     0x0000112b      0x15f c:/intelfpga_lite/23.1std/nios2eds/bin/gnu/h-x86_64-mingw32/bin/../lib/gcc/nios2-elf/12.3.1/../../../../../H-x86_64-mingw32/nios2-elf/lib\libc.a(libc_a-findfp.o)
                                0x629 (size before relaxing)
 .debug_str     0x0000128a       0x2a c:/intelfpga_lite/23.1std/nios2eds/bin/gnu/h-x86_64-mingw32/bin/../lib/gcc/nios2-elf/12.3.1/../../../../../H-x86_64-mingw32/nios2-elf/lib\libc.a(libc_a-fopen.o)
                                0x4a7 (size before relaxing)
 .debug_str     0x000012b4       0x44 c:/intelfpga_lite/23.1std/nios2eds/bin/gnu/h-x86_64-mingw32/bin/../lib/gcc/nios2-elf/12.3.1/../../../../../H-x86_64-mingw32/nios2-elf/lib\libc.a(libc_a-fread.o)
                                0x4a5 (size before relaxing)
 .debug_str     0x000012f8       0x17 c:/intelfpga_lite/23.1std/nios2eds/bin/gnu/h-x86_64-mingw32/bin/../lib/gcc/nios2-elf/12.3.1/../../../../../H-x86_64-mingw32/nios2-elf/lib\libc.a(libc_a-fseek.o)
                                0x440 (size before relaxing)
 .debug_str     0x0000130f       0x17 c:/intelfpga_lite/23.1std/nios2eds/bin/gnu/h-x86_64-mingw32/bin/../lib/gcc/nios2-elf/12.3.1/../../../../../H-x86_64-mingw32/nios2-elf/lib\libc.a(libc_a-fwalk.o)
                                0x432 (size before relaxing)
 .debug_str     0x0000130f       0x56 c:/intelfpga_lite/23.1std/nios2eds/bin/gnu/h-x86_64-mingw32/bin/../lib/gcc/nios2-elf/12.3.1/../../../../../H-x86_64-mingw32/nios2-elf/lib\libc.a(libc_a-printf.o)
                                0x47e (size before relaxing)
 .debug_str     0x00001365       0x13 c:/intelfpga_lite/23.1std/nios2eds/bin/gnu/h-x86_64-mingw32/bin/../lib/gcc/nios2-elf/12.3.1/../../../../../H-x86_64-mingw32/nios2-elf/lib\libc.a(libc_a-putchar.o)
                                0x43a (size before relaxing)
 .debug_str     0x00001378       0x51 c:/intelfpga_lite/23.1std/nios2eds/bin/gnu/h-x86_64-mingw32/bin/../lib/gcc/nios2-elf/12.3.1/../../../../../H-x86_64-mingw32/nios2-elf/lib\libc.a(libc_a-puts.o)
                                0x49c (size before relaxing)
 .debug_str     0x000013c9       0x1f c:/intelfpga_lite/23.1std/nios2eds/bin/gnu/h-x86_64-mingw32/bin/../lib/gcc/nios2-elf/12.3.1/../../../../../H-x86_64-mingw32/nios2-elf/lib\libc.a(libc_a-refill.o)
                                0x4ae (size before relaxing)
 .debug_str     0x000013e8       0x37 c:/intelfpga_lite/23.1std/nios2eds/bin/gnu/h-x86_64-mingw32/bin/../lib/gcc/nios2-elf/12.3.1/../../../../../H-x86_64-mingw32/nios2-elf/lib\libc.a(libc_a-stdio.o)
                                0x48f (size before relaxing)
 .debug_str     0x0000141f       0xce c:/intelfpga_lite/23.1std/nios2eds/bin/gnu/h-x86_64-mingw32/bin/../lib/gcc/nios2-elf/12.3.1/../../../../../H-x86_64-mingw32/nios2-elf/lib\libc.a(libc_a-fseeko.o)
                                0x601 (size before relaxing)
 .debug_str     0x000014ed       0x27 c:/intelfpga_lite/23.1std/nios2eds/bin/gnu/h-x86_64-mingw32/bin/../lib/gcc/nios2-elf/12.3.1/../../../../../H-x86_64-mingw32/nios2-elf/lib\libc.a(libc_a-memcpy.o)
                                0x134 (size before relaxing)
 .debug_str     0x00001514       0x14 c:/intelfpga_lite/23.1std/nios2eds/bin/gnu/h-x86_64-mingw32/bin/../lib/gcc/nios2-elf/12.3.1/../../../../../H-x86_64-mingw32/nios2-elf/lib\libc.a(libc_a-memset.o)
                                0x121 (size before relaxing)
 .debug_str     0x00001528       0x14 c:/intelfpga_lite/23.1std/nios2eds/bin/gnu/h-x86_64-mingw32/bin/../lib/gcc/nios2-elf/12.3.1/../../../../../H-x86_64-mingw32/nios2-elf/lib\libc.a(libc_a-strlen.o)
                                0x120 (size before relaxing)
 .debug_str     0x00001528       0x14 c:/intelfpga_lite/23.1std/nios2eds/bin/gnu/h-x86_64-mingw32/bin/../lib/gcc/nios2-elf/12.3.1/../../../../../H-x86_64-mingw32/nios2-elf/lib\libc.a(libc_a-closer.o)
                                0x41d (size before relaxing)
 .debug_str     0x00001528       0x1f c:/intelfpga_lite/23.1std/nios2eds/bin/gnu/h-x86_64-mingw32/bin/../lib/gcc/nios2-elf/12.3.1/../../../../../H-x86_64-mingw32/nios2-elf/lib\libc.a(libc_a-reent.o)
                                0x441 (size before relaxing)
 .debug_str     0x00001547      0x426 c:/intelfpga_lite/23.1std/nios2eds/bin/gnu/h-x86_64-mingw32/bin/../lib/gcc/nios2-elf/12.3.1/../../../../../H-x86_64-mingw32/nios2-elf/lib\libc.a(libc_a-impure.o)
 .debug_str     0x00001547        0x6 c:/intelfpga_lite/23.1std/nios2eds/bin/gnu/h-x86_64-mingw32/bin/../lib/gcc/nios2-elf/12.3.1/../../../../../H-x86_64-mingw32/nios2-elf/lib\libc.a(libc_a-fstatr.o)
                                0x568 (size before relaxing)
 .debug_str     0x0000154d        0x6 c:/intelfpga_lite/23.1std/nios2eds/bin/gnu/h-x86_64-mingw32/bin/../lib/gcc/nios2-elf/12.3.1/../../../../../H-x86_64-mingw32/nios2-elf/lib\libc.a(libc_a-lseekr.o)
                                0x432 (size before relaxing)
 .debug_str     0x00001553        0x6 c:/intelfpga_lite/23.1std/nios2eds/bin/gnu/h-x86_64-mingw32/bin/../lib/gcc/nios2-elf/12.3.1/../../../../../H-x86_64-mingw32/nios2-elf/lib\libc.a(libc_a-openr.o)
                                0x42b (size before relaxing)
 .debug_str     0x00001553        0x6 c:/intelfpga_lite/23.1std/nios2eds/bin/gnu/h-x86_64-mingw32/bin/../lib/gcc/nios2-elf/12.3.1/../../../../../H-x86_64-mingw32/nios2-elf/lib\libc.a(libc_a-readr.o)
                                0x42b (size before relaxing)
 .debug_str     0x00001553        0x6 c:/intelfpga_lite/23.1std/nios2eds/bin/gnu/h-x86_64-mingw32/bin/../lib/gcc/nios2-elf/12.3.1/../../../../../H-x86_64-mingw32/nios2-elf/lib\libc.a(libc_a-writer.o)
                                0x42d (size before relaxing)
 .debug_str     0x00001553      0x41c c:/intelfpga_lite/23.1std/nios2eds/bin/gnu/h-x86_64-mingw32/bin/../lib/gcc/nios2-elf/12.3.1/../../../../../H-x86_64-mingw32/nios2-elf/lib\libc.a(libc_a-errno.o)
 .debug_str     0x00001553       0x6d c:/intelfpga_lite/23.1std/nios2eds/bin/gnu/h-x86_64-mingw32/bin/../lib/gcc/nios2-elf/12.3.1/../../../../../H-x86_64-mingw32/nios2-elf/lib\libc.a(libc_a-__call_atexit.o)
                                0x19d (size before relaxing)
 .debug_str     0x000015c0      0x147 c:/intelfpga_lite/23.1std/nios2eds/bin/gnu/h-x86_64-mingw32/bin/../lib/gcc/nios2-elf/12.3.1/../../../../../H-x86_64-mingw32/nios2-elf/lib\libc.a(libc_a-freer.o)
                                0x589 (size before relaxing)
 .debug_str     0x00001707       0xe5 c:/intelfpga_lite/23.1std/nios2eds/bin/gnu/h-x86_64-mingw32/bin/../lib/gcc/nios2-elf/12.3.1/../../../../../H-x86_64-mingw32/nios2-elf/lib\libc.a(libc_a-mallocr.o)
                                0x63f (size before relaxing)
 .debug_str     0x000017ec      0x296 c:/intelfpga_lite/23.1std/nios2eds/bin/gnu/h-x86_64-mingw32/bin/../lib/gcc/nios2-elf/12.3.1/../../../../../H-x86_64-mingw32/nios2-elf/lib\libc.a(libc_a-vfprintf.o)
                                0x8c4 (size before relaxing)
 .debug_str     0x00001a82       0x37 c:/intelfpga_lite/23.1std/nios2eds/bin/gnu/h-x86_64-mingw32/bin/../lib/gcc/nios2-elf/12.3.1/../../../../../H-x86_64-mingw32/nios2-elf/lib\libc.a(libc_a-vfiprintf.o)
                                0x7ef (size before relaxing)
 .debug_str     0x00001ab9        0x5 c:/intelfpga_lite/23.1std/nios2eds/bin/gnu/h-x86_64-mingw32/bin/../lib/gcc/nios2-elf/12.3.1/../../../../../H-x86_64-mingw32/nios2-elf/lib\libc.a(libc_a-flags.o)
                                0x41b (size before relaxing)
 .debug_str     0x00001abe       0x31 c:/intelfpga_lite/23.1std/nios2eds/bin/gnu/h-x86_64-mingw32/bin/../lib/gcc/nios2-elf/12.3.1/../../../../../H-x86_64-mingw32/nios2-elf/lib\libc.a(libc_a-fvwrite.o)
                                0x4cd (size before relaxing)
 .debug_str     0x00001aef       0x2f c:/intelfpga_lite/23.1std/nios2eds/bin/gnu/h-x86_64-mingw32/bin/../lib/gcc/nios2-elf/12.3.1/../../../../../H-x86_64-mingw32/nios2-elf/lib\libc.a(libc_a-makebuf.o)
                                0x5b3 (size before relaxing)
 .debug_str     0x00001b1e        0xf c:/intelfpga_lite/23.1std/nios2eds/bin/gnu/h-x86_64-mingw32/bin/../lib/gcc/nios2-elf/12.3.1/../../../../../H-x86_64-mingw32/nios2-elf/lib\libc.a(libc_a-putc.o)
                                0x455 (size before relaxing)
 .debug_str     0x00001b2d        0x8 c:/intelfpga_lite/23.1std/nios2eds/bin/gnu/h-x86_64-mingw32/bin/../lib/gcc/nios2-elf/12.3.1/../../../../../H-x86_64-mingw32/nios2-elf/lib\libc.a(libc_a-wbuf.o)
                                0x459 (size before relaxing)
 .debug_str     0x00001b35      0x452 c:/intelfpga_lite/23.1std/nios2eds/bin/gnu/h-x86_64-mingw32/bin/../lib/gcc/nios2-elf/12.3.1/../../../../../H-x86_64-mingw32/nios2-elf/lib\libc.a(libc_a-wsetup.o)
 .debug_str     0x00001b35       0x28 c:/intelfpga_lite/23.1std/nios2eds/bin/gnu/h-x86_64-mingw32/bin/../lib/gcc/nios2-elf/12.3.1/../../../../../H-x86_64-mingw32/nios2-elf/lib\libc.a(libc_a-fputwc.o)
                                0x493 (size before relaxing)
 .debug_str     0x00001b5d       0x13 c:/intelfpga_lite/23.1std/nios2eds/bin/gnu/h-x86_64-mingw32/bin/../lib/gcc/nios2-elf/12.3.1/../../../../../H-x86_64-mingw32/nios2-elf/lib\libc.a(libc_a-memchr.o)
                                0x127 (size before relaxing)
 .debug_str     0x00001b70        0x9 c:/intelfpga_lite/23.1std/nios2eds/bin/gnu/h-x86_64-mingw32/bin/../lib/gcc/nios2-elf/12.3.1/../../../../../H-x86_64-mingw32/nios2-elf/lib\libc.a(libc_a-memmove.o)
                                0x13f (size before relaxing)
 .debug_str     0x00001b79       0x93 c:/intelfpga_lite/23.1std/nios2eds/bin/gnu/h-x86_64-mingw32/bin/../lib/gcc/nios2-elf/12.3.1/../../../../../H-x86_64-mingw32/nios2-elf/lib\libc.a(libc_a-locale.o)
                                0x6a0 (size before relaxing)
 .debug_str     0x00001c0c       0x29 c:/intelfpga_lite/23.1std/nios2eds/bin/gnu/h-x86_64-mingw32/bin/../lib/gcc/nios2-elf/12.3.1/../../../../../H-x86_64-mingw32/nios2-elf/lib\libc.a(libc_a-localeconv.o)
                                0x662 (size before relaxing)
 .debug_str     0x00001c35        0x7 c:/intelfpga_lite/23.1std/nios2eds/bin/gnu/h-x86_64-mingw32/bin/../lib/gcc/nios2-elf/12.3.1/../../../../../H-x86_64-mingw32/nios2-elf/lib\libc.a(libc_a-isattyr.o)
                                0x41f (size before relaxing)
 .debug_str     0x00001c3c        0xa c:/intelfpga_lite/23.1std/nios2eds/bin/gnu/h-x86_64-mingw32/bin/../lib/gcc/nios2-elf/12.3.1/../../../../../H-x86_64-mingw32/nios2-elf/lib\libc.a(libc_a-sbrkr.o)
                                0x42a (size before relaxing)
 .debug_str     0x00001c46      0x140 c:/intelfpga_lite/23.1std/nios2eds/bin/gnu/h-x86_64-mingw32/bin/../lib/gcc/nios2-elf/12.3.1/../../../../../H-x86_64-mingw32/nios2-elf/lib\libc.a(libc_a-dtoa.o)
                                0x7de (size before relaxing)
 .debug_str     0x00001d86       0x10 c:/intelfpga_lite/23.1std/nios2eds/bin/gnu/h-x86_64-mingw32/bin/../lib/gcc/nios2-elf/12.3.1/../../../../../H-x86_64-mingw32/nios2-elf/lib\libc.a(libc_a-mbtowc_r.o)
                                0x644 (size before relaxing)
 .debug_str     0x00001d96       0x6b c:/intelfpga_lite/23.1std/nios2eds/bin/gnu/h-x86_64-mingw32/bin/../lib/gcc/nios2-elf/12.3.1/../../../../../H-x86_64-mingw32/nios2-elf/lib\libc.a(libc_a-mprec.o)
                                0x738 (size before relaxing)
 .debug_str     0x00001e01       0x4e c:/intelfpga_lite/23.1std/nios2eds/bin/gnu/h-x86_64-mingw32/bin/../lib/gcc/nios2-elf/12.3.1/../../../../../H-x86_64-mingw32/nios2-elf/lib\libc.a(libc_a-reallocr.o)
                                0x511 (size before relaxing)
 .debug_str     0x00001e4f       0x11 c:/intelfpga_lite/23.1std/nios2eds/bin/gnu/h-x86_64-mingw32/bin/../lib/gcc/nios2-elf/12.3.1/../../../../../H-x86_64-mingw32/nios2-elf/lib\libc.a(libc_a-wctomb_r.o)
                                0x64b (size before relaxing)
 .debug_str     0x00001e60        0xf c:/intelfpga_lite/23.1std/nios2eds/bin/gnu/h-x86_64-mingw32/bin/../lib/gcc/nios2-elf/12.3.1/../../../../../H-x86_64-mingw32/nios2-elf/lib\libc.a(libc_a-wcrtomb.o)
                                0x64b (size before relaxing)
 .debug_str     0x00001e6f        0x8 c:/intelfpga_lite/23.1std/nios2eds/bin/gnu/h-x86_64-mingw32/bin/../lib/gcc/nios2-elf/12.3.1/../../../../../H-x86_64-mingw32/nios2-elf/lib\libc.a(libc_a-ctype_.o)
                                0x110 (size before relaxing)
 .debug_str     0x00001e77      0x106 c:/intelfpga_lite/23.1std/nios2eds/bin/gnu/h-x86_64-mingw32/bin/../lib/gcc/nios2-elf/12.3.1/../../../../../H-x86_64-mingw32/nios2-elf/lib\libc.a(libc_a-strcmp.o)
 .debug_str     0x00001e77       0x28 c:/intelfpga_lite/23.1std/nios2eds/bin/gnu/h-x86_64-mingw32/bin/../lib/gcc/nios2-elf/12.3.1/../../../../../H-x86_64-mingw32/nios2-elf/lib\libc.a(libc_a-assert.o)
                                0x459 (size before relaxing)
 .debug_str     0x00001e9f        0xf c:/intelfpga_lite/23.1std/nios2eds/bin/gnu/h-x86_64-mingw32/bin/../lib/gcc/nios2-elf/12.3.1/../../../../../H-x86_64-mingw32/nios2-elf/lib\libc.a(libc_a-callocr.o)
                                0x471 (size before relaxing)
 .debug_str     0x00001eae       0x19 c:/intelfpga_lite/23.1std/nios2eds/bin/gnu/h-x86_64-mingw32/bin/../lib/gcc/nios2-elf/12.3.1/../../../../../H-x86_64-mingw32/nios2-elf/lib\libc.a(libc_a-fiprintf.o)
                                0x464 (size before relaxing)
 .debug_str     0x00001ec7      0x460 c:/intelfpga_lite/23.1std/nios2eds/bin/gnu/h-x86_64-mingw32/bin/../lib/gcc/nios2-elf/12.3.1/../../../../../H-x86_64-mingw32/nios2-elf/lib\libc.a(libc_a-vfiprintfr_1.o)
 .debug_str     0x00001ec7        0x6 c:/intelfpga_lite/23.1std/nios2eds/bin/gnu/h-x86_64-mingw32/bin/../lib/gcc/nios2-elf/12.3.1/../../../../../H-x86_64-mingw32/nios2-elf/lib\libc.a(libc_a-abort.o)
                                0x111 (size before relaxing)
 .debug_str     0x00001ecd       0x66 c:/intelfpga_lite/23.1std/nios2eds/bin/gnu/h-x86_64-mingw32/bin/../lib/gcc/nios2-elf/12.3.1/../../../../../H-x86_64-mingw32/nios2-elf/lib\libc.a(libc_a-signal.o)
                                0x4a7 (size before relaxing)
 .debug_str     0x00001f33       0x14 c:/intelfpga_lite/23.1std/nios2eds/bin/gnu/h-x86_64-mingw32/bin/../lib/gcc/nios2-elf/12.3.1/../../../../../H-x86_64-mingw32/nios2-elf/lib\libc.a(libc_a-signalr.o)
                                0x43a (size before relaxing)
 .debug_str     0x00001f47       0xcc c:/intelfpga_lite/23.1std/nios2eds/bin/gnu/h-x86_64-mingw32/bin/../lib/gcc/nios2-elf/12.3.1\libgcc.a(_udivdi3.o)
                                0x201 (size before relaxing)
 .debug_str     0x00002013      0x201 c:/intelfpga_lite/23.1std/nios2eds/bin/gnu/h-x86_64-mingw32/bin/../lib/gcc/nios2-elf/12.3.1\libgcc.a(_umoddi3.o)
 .debug_str     0x00002013      0x215 c:/intelfpga_lite/23.1std/nios2eds/bin/gnu/h-x86_64-mingw32/bin/../lib/gcc/nios2-elf/12.3.1\libgcc.a(floatunsidf.o)
 .debug_str     0x00002013      0x10d c:/Users/pedro/OneDrive/Documentos/CNN-paralel/Software/c0_bsp/\libhal_bsp.a(alt_close.o)
                                0x1e1 (size before relaxing)
 .debug_str     0x00002120       0x4b c:/Users/pedro/OneDrive/Documentos/CNN-paralel/Software/c0_bsp/\libhal_bsp.a(alt_dev.o)
                                0x33a (size before relaxing)
 .debug_str     0x0000216b       0x74 c:/Users/pedro/OneDrive/Documentos/CNN-paralel/Software/c0_bsp/\libhal_bsp.a(alt_errno.o)
                                0x11b (size before relaxing)
 .debug_str     0x000021df      0x312 c:/Users/pedro/OneDrive/Documentos/CNN-paralel/Software/c0_bsp/\libhal_bsp.a(alt_fstat.o)
 .debug_str     0x000021df       0x7b c:/Users/pedro/OneDrive/Documentos/CNN-paralel/Software/c0_bsp/\libhal_bsp.a(alt_getpid.o)
 .debug_str     0x000021df      0x319 c:/Users/pedro/OneDrive/Documentos/CNN-paralel/Software/c0_bsp/\libhal_bsp.a(alt_isatty.o)
 .debug_str     0x000021df        0x7 c:/Users/pedro/OneDrive/Documentos/CNN-paralel/Software/c0_bsp/\libhal_bsp.a(alt_kill.o)
                                0x139 (size before relaxing)
 .debug_str     0x000021e6      0x108 c:/Users/pedro/OneDrive/Documentos/CNN-paralel/Software/c0_bsp/\libhal_bsp.a(alt_load.o)
                                0x211 (size before relaxing)
 .debug_str     0x000022ee      0x1e0 c:/Users/pedro/OneDrive/Documentos/CNN-paralel/Software/c0_bsp/\libhal_bsp.a(alt_lseek.o)
 .debug_str     0x000022ee       0x5b c:/Users/pedro/OneDrive/Documentos/CNN-paralel/Software/c0_bsp/\libhal_bsp.a(alt_main.o)
                                0x169 (size before relaxing)
 .debug_str     0x00002349      0x430 c:/Users/pedro/OneDrive/Documentos/CNN-paralel/Software/c0_bsp/\libhal_bsp.a(alt_malloc_lock.o)
 .debug_str     0x00002349       0x3c c:/Users/pedro/OneDrive/Documentos/CNN-paralel/Software/c0_bsp/\libhal_bsp.a(alt_open.o)
                                0x255 (size before relaxing)
 .debug_str     0x00002385      0x31e c:/Users/pedro/OneDrive/Documentos/CNN-paralel/Software/c0_bsp/\libhal_bsp.a(alt_read.o)
 .debug_str     0x00002385      0x19e c:/Users/pedro/OneDrive/Documentos/CNN-paralel/Software/c0_bsp/\libhal_bsp.a(alt_release_fd.o)
 .debug_str     0x00002385       0x6f c:/Users/pedro/OneDrive/Documentos/CNN-paralel/Software/c0_bsp/\libhal_bsp.a(alt_sbrk.o)
                                0x193 (size before relaxing)
 .debug_str     0x000023f4      0x31e c:/Users/pedro/OneDrive/Documentos/CNN-paralel/Software/c0_bsp/\libhal_bsp.a(alt_write.o)
 .debug_str     0x000023f4      0x1c4 c:/Users/pedro/OneDrive/Documentos/CNN-paralel/Software/c0_bsp/\libhal_bsp.a(alt_sys_init.o)
                                0x399 (size before relaxing)
 .debug_str     0x000025b8       0x3b c:/Users/pedro/OneDrive/Documentos/CNN-paralel/Software/c0_bsp/\libhal_bsp.a(altera_avalon_jtag_uart_fd.o)
                                0x2a8 (size before relaxing)
 .debug_str     0x000025f3      0x188 c:/Users/pedro/OneDrive/Documentos/CNN-paralel/Software/c0_bsp/\libhal_bsp.a(altera_avalon_jtag_uart_read.o)
 .debug_str     0x000025f3      0x17d c:/Users/pedro/OneDrive/Documentos/CNN-paralel/Software/c0_bsp/\libhal_bsp.a(altera_avalon_jtag_uart_write.o)
 .debug_str     0x000025f3       0xc7 c:/Users/pedro/OneDrive/Documentos/CNN-paralel/Software/c0_bsp/\libhal_bsp.a(altera_hostfs.o)
                                0x455 (size before relaxing)
 .debug_str     0x000026ba      0x11e c:/Users/pedro/OneDrive/Documentos/CNN-paralel/Software/c0_bsp/\libhal_bsp.a(alt_dcache_flush_all.o)
 .debug_str     0x000026ba       0x17 c:/Users/pedro/OneDrive/Documentos/CNN-paralel/Software/c0_bsp/\libhal_bsp.a(alt_dev_llist_insert.o)
                                0x195 (size before relaxing)
 .debug_str     0x000026d1        0x7 c:/Users/pedro/OneDrive/Documentos/CNN-paralel/Software/c0_bsp/\libhal_bsp.a(alt_find_dev.o)
                                0x1c5 (size before relaxing)
 .debug_str     0x000026d8      0x1d2 c:/Users/pedro/OneDrive/Documentos/CNN-paralel/Software/c0_bsp/\libhal_bsp.a(alt_find_file.o)
 .debug_str     0x000026d8      0x1cf c:/Users/pedro/OneDrive/Documentos/CNN-paralel/Software/c0_bsp/\libhal_bsp.a(alt_fs_reg.o)
 .debug_str     0x000026d8       0x10 c:/Users/pedro/OneDrive/Documentos/CNN-paralel/Software/c0_bsp/\libhal_bsp.a(alt_get_fd.o)
                                0x1e2 (size before relaxing)
 .debug_str     0x000026e8      0x11e c:/Users/pedro/OneDrive/Documentos/CNN-paralel/Software/c0_bsp/\libhal_bsp.a(alt_icache_flush_all.o)
 .debug_str     0x000026e8       0x2c c:/Users/pedro/OneDrive/Documentos/CNN-paralel/Software/c0_bsp/\libhal_bsp.a(alt_io_redirect.o)
                                0x345 (size before relaxing)
 .debug_str     0x00002714      0x124 c:/Users/pedro/OneDrive/Documentos/CNN-paralel/Software/c0_bsp/\libhal_bsp.a(altera_nios2_gen2_irq.o)
 .debug_str     0x00002714      0x10d c:/intelfpga_lite/23.1std/nios2eds/bin/gnu/h-x86_64-mingw32/bin/../lib/gcc/nios2-elf/12.3.1/../../../../../H-x86_64-mingw32/nios2-elf/lib\libc.a(libc_a-memcmp.o)

.debug_loc
 *(.debug_loc)

.debug_macinfo
 *(.debug_macinfo)

.debug_weaknames
 *(.debug_weaknames)

.debug_funcnames
 *(.debug_funcnames)

.debug_typenames
 *(.debug_typenames)

.debug_varnames
 *(.debug_varnames)

.debug_alt_sim_info
                0x00000000       0x10
 *(.debug_alt_sim_info)
 .debug_alt_sim_info
                0x00000000       0x10 c:/Users/pedro/OneDrive/Documentos/CNN-paralel/Software/c0_bsp//obj/HAL/src/crt0.o
                0x00188b80                        __alt_data_end = 0x188b80
                0x00188b80                        PROVIDE (__alt_stack_pointer = __alt_data_end)
                [!provide]                        PROVIDE (__alt_stack_limit = __alt_stack_base)
                0x0017d130                        PROVIDE (__alt_heap_start = end)
                0x00188b80                        PROVIDE (__alt_heap_limit = 0x188b80)
OUTPUT(c0.elf elf32-littlenios2)
LOAD linker stubs

.debug_ranges   0x00000000       0x20
 .debug_ranges  0x00000000       0x20 c:/Users/pedro/OneDrive/Documentos/CNN-paralel/Software/c0_bsp//obj/HAL/src/crt0.o

.debug_loclists
                0x00000000    0x1a15b
 .debug_loclists
                0x00000000      0x1df obj/default/image.o
 .debug_loclists
                0x000001df      0xc50 obj/default/main.o
 .debug_loclists
                0x00000e2f       0x56 c:/intelfpga_lite/23.1std/nios2eds/bin/gnu/h-x86_64-mingw32/bin/../lib/gcc/nios2-elf/12.3.1/../../../../../H-x86_64-mingw32/nios2-elf/lib\libm.a(libm_a-w_exp.o)
 .debug_loclists
                0x00000e85      0x388 c:/intelfpga_lite/23.1std/nios2eds/bin/gnu/h-x86_64-mingw32/bin/../lib/gcc/nios2-elf/12.3.1/../../../../../H-x86_64-mingw32/nios2-elf/lib\libm.a(libm_a-e_exp.o)
 .debug_loclists
                0x0000120d      0x1ca c:/intelfpga_lite/23.1std/nios2eds/bin/gnu/h-x86_64-mingw32/bin/../lib/gcc/nios2-elf/12.3.1/../../../../../H-x86_64-mingw32/nios2-elf/lib\libm.a(libm_a-math_err.o)
 .debug_loclists
                0x000013d7      0x37a c:/intelfpga_lite/23.1std/nios2eds/bin/gnu/h-x86_64-mingw32/bin/../lib/gcc/nios2-elf/12.3.1\libgcc.a(lib2-divmod.o)
 .debug_loclists
                0x00001751      0xa52 c:/intelfpga_lite/23.1std/nios2eds/bin/gnu/h-x86_64-mingw32/bin/../lib/gcc/nios2-elf/12.3.1\libgcc.a(addsf3.o)
 .debug_loclists
                0x000021a3      0x6ad c:/intelfpga_lite/23.1std/nios2eds/bin/gnu/h-x86_64-mingw32/bin/../lib/gcc/nios2-elf/12.3.1\libgcc.a(divsf3.o)
 .debug_loclists
                0x00002850      0x146 c:/intelfpga_lite/23.1std/nios2eds/bin/gnu/h-x86_64-mingw32/bin/../lib/gcc/nios2-elf/12.3.1\libgcc.a(gesf2.o)
 .debug_loclists
                0x00002996      0x13d c:/intelfpga_lite/23.1std/nios2eds/bin/gnu/h-x86_64-mingw32/bin/../lib/gcc/nios2-elf/12.3.1\libgcc.a(lesf2.o)
 .debug_loclists
                0x00002ad3      0x671 c:/intelfpga_lite/23.1std/nios2eds/bin/gnu/h-x86_64-mingw32/bin/../lib/gcc/nios2-elf/12.3.1\libgcc.a(mulsf3.o)
 .debug_loclists
                0x00003144      0x9f8 c:/intelfpga_lite/23.1std/nios2eds/bin/gnu/h-x86_64-mingw32/bin/../lib/gcc/nios2-elf/12.3.1\libgcc.a(subsf3.o)
 .debug_loclists
                0x00003b3c      0x17f c:/intelfpga_lite/23.1std/nios2eds/bin/gnu/h-x86_64-mingw32/bin/../lib/gcc/nios2-elf/12.3.1\libgcc.a(floatunsisf.o)
 .debug_loclists
                0x00003cbb     0x16f4 c:/intelfpga_lite/23.1std/nios2eds/bin/gnu/h-x86_64-mingw32/bin/../lib/gcc/nios2-elf/12.3.1\libgcc.a(adddf3.o)
 .debug_loclists
                0x000053af     0x195a c:/intelfpga_lite/23.1std/nios2eds/bin/gnu/h-x86_64-mingw32/bin/../lib/gcc/nios2-elf/12.3.1\libgcc.a(divdf3.o)
 .debug_loclists
                0x00006d09       0x7b c:/intelfpga_lite/23.1std/nios2eds/bin/gnu/h-x86_64-mingw32/bin/../lib/gcc/nios2-elf/12.3.1\libgcc.a(eqdf2.o)
 .debug_loclists
                0x00006d84      0x23d c:/intelfpga_lite/23.1std/nios2eds/bin/gnu/h-x86_64-mingw32/bin/../lib/gcc/nios2-elf/12.3.1\libgcc.a(gedf2.o)
 .debug_loclists
                0x00006fc1      0x217 c:/intelfpga_lite/23.1std/nios2eds/bin/gnu/h-x86_64-mingw32/bin/../lib/gcc/nios2-elf/12.3.1\libgcc.a(ledf2.o)
 .debug_loclists
                0x000071d8      0xde3 c:/intelfpga_lite/23.1std/nios2eds/bin/gnu/h-x86_64-mingw32/bin/../lib/gcc/nios2-elf/12.3.1\libgcc.a(muldf3.o)
 .debug_loclists
                0x00007fbb     0x17f9 c:/intelfpga_lite/23.1std/nios2eds/bin/gnu/h-x86_64-mingw32/bin/../lib/gcc/nios2-elf/12.3.1\libgcc.a(subdf3.o)
 .debug_loclists
                0x000097b4       0x4f c:/intelfpga_lite/23.1std/nios2eds/bin/gnu/h-x86_64-mingw32/bin/../lib/gcc/nios2-elf/12.3.1\libgcc.a(unorddf2.o)
 .debug_loclists
                0x00009803      0x121 c:/intelfpga_lite/23.1std/nios2eds/bin/gnu/h-x86_64-mingw32/bin/../lib/gcc/nios2-elf/12.3.1\libgcc.a(fixdfsi.o)
 .debug_loclists
                0x00009924      0x176 c:/intelfpga_lite/23.1std/nios2eds/bin/gnu/h-x86_64-mingw32/bin/../lib/gcc/nios2-elf/12.3.1\libgcc.a(floatsidf.o)
 .debug_loclists
                0x00009a9a      0x220 c:/intelfpga_lite/23.1std/nios2eds/bin/gnu/h-x86_64-mingw32/bin/../lib/gcc/nios2-elf/12.3.1\libgcc.a(extendsfdf2.o)
 .debug_loclists
                0x00009cba      0x320 c:/intelfpga_lite/23.1std/nios2eds/bin/gnu/h-x86_64-mingw32/bin/../lib/gcc/nios2-elf/12.3.1\libgcc.a(truncdfsf2.o)
 .debug_loclists
                0x00009fda       0x46 c:/intelfpga_lite/23.1std/nios2eds/bin/gnu/h-x86_64-mingw32/bin/../lib/gcc/nios2-elf/12.3.1\libgcc.a(_clzsi2.o)
 .debug_loclists
                0x0000a020       0x20 c:/intelfpga_lite/23.1std/nios2eds/bin/gnu/h-x86_64-mingw32/bin/../lib/gcc/nios2-elf/12.3.1/../../../../../H-x86_64-mingw32/nios2-elf/lib\libc.a(libc_a-exit.o)
 .debug_loclists
                0x0000a040      0x10e c:/intelfpga_lite/23.1std/nios2eds/bin/gnu/h-x86_64-mingw32/bin/../lib/gcc/nios2-elf/12.3.1/../../../../../H-x86_64-mingw32/nios2-elf/lib\libc.a(libc_a-fclose.o)
 .debug_loclists
                0x0000a14e      0x332 c:/intelfpga_lite/23.1std/nios2eds/bin/gnu/h-x86_64-mingw32/bin/../lib/gcc/nios2-elf/12.3.1/../../../../../H-x86_64-mingw32/nios2-elf/lib\libc.a(libc_a-fflush.o)
 .debug_loclists
                0x0000a480      0x1c6 c:/intelfpga_lite/23.1std/nios2eds/bin/gnu/h-x86_64-mingw32/bin/../lib/gcc/nios2-elf/12.3.1/../../../../../H-x86_64-mingw32/nios2-elf/lib\libc.a(libc_a-findfp.o)
 .debug_loclists
                0x0000a646      0x10b c:/intelfpga_lite/23.1std/nios2eds/bin/gnu/h-x86_64-mingw32/bin/../lib/gcc/nios2-elf/12.3.1/../../../../../H-x86_64-mingw32/nios2-elf/lib\libc.a(libc_a-fopen.o)
 .debug_loclists
                0x0000a751      0x3a4 c:/intelfpga_lite/23.1std/nios2eds/bin/gnu/h-x86_64-mingw32/bin/../lib/gcc/nios2-elf/12.3.1/../../../../../H-x86_64-mingw32/nios2-elf/lib\libc.a(libc_a-fread.o)
 .debug_loclists
                0x0000aaf5      0x11c c:/intelfpga_lite/23.1std/nios2eds/bin/gnu/h-x86_64-mingw32/bin/../lib/gcc/nios2-elf/12.3.1/../../../../../H-x86_64-mingw32/nios2-elf/lib\libc.a(libc_a-fseek.o)
 .debug_loclists
                0x0000ac11       0xb8 c:/intelfpga_lite/23.1std/nios2eds/bin/gnu/h-x86_64-mingw32/bin/../lib/gcc/nios2-elf/12.3.1/../../../../../H-x86_64-mingw32/nios2-elf/lib\libc.a(libc_a-fwalk.o)
 .debug_loclists
                0x0000acc9       0xb3 c:/intelfpga_lite/23.1std/nios2eds/bin/gnu/h-x86_64-mingw32/bin/../lib/gcc/nios2-elf/12.3.1/../../../../../H-x86_64-mingw32/nios2-elf/lib\libc.a(libc_a-printf.o)
 .debug_loclists
                0x0000ad7c       0x63 c:/intelfpga_lite/23.1std/nios2eds/bin/gnu/h-x86_64-mingw32/bin/../lib/gcc/nios2-elf/12.3.1/../../../../../H-x86_64-mingw32/nios2-elf/lib\libc.a(libc_a-putchar.o)
 .debug_loclists
                0x0000addf       0xd7 c:/intelfpga_lite/23.1std/nios2eds/bin/gnu/h-x86_64-mingw32/bin/../lib/gcc/nios2-elf/12.3.1/../../../../../H-x86_64-mingw32/nios2-elf/lib\libc.a(libc_a-puts.o)
 .debug_loclists
                0x0000aeb6      0x127 c:/intelfpga_lite/23.1std/nios2eds/bin/gnu/h-x86_64-mingw32/bin/../lib/gcc/nios2-elf/12.3.1/../../../../../H-x86_64-mingw32/nios2-elf/lib\libc.a(libc_a-refill.o)
 .debug_loclists
                0x0000afdd      0x2a2 c:/intelfpga_lite/23.1std/nios2eds/bin/gnu/h-x86_64-mingw32/bin/../lib/gcc/nios2-elf/12.3.1/../../../../../H-x86_64-mingw32/nios2-elf/lib\libc.a(libc_a-stdio.o)
 .debug_loclists
                0x0000b27f      0x30c c:/intelfpga_lite/23.1std/nios2eds/bin/gnu/h-x86_64-mingw32/bin/../lib/gcc/nios2-elf/12.3.1/../../../../../H-x86_64-mingw32/nios2-elf/lib\libc.a(libc_a-fseeko.o)
 .debug_loclists
                0x0000b58b      0x23b c:/intelfpga_lite/23.1std/nios2eds/bin/gnu/h-x86_64-mingw32/bin/../lib/gcc/nios2-elf/12.3.1/../../../../../H-x86_64-mingw32/nios2-elf/lib\libc.a(libc_a-memcpy.o)
 .debug_loclists
                0x0000b7c6      0x15e c:/intelfpga_lite/23.1std/nios2eds/bin/gnu/h-x86_64-mingw32/bin/../lib/gcc/nios2-elf/12.3.1/../../../../../H-x86_64-mingw32/nios2-elf/lib\libc.a(libc_a-memset.o)
 .debug_loclists
                0x0000b924       0x4d c:/intelfpga_lite/23.1std/nios2eds/bin/gnu/h-x86_64-mingw32/bin/../lib/gcc/nios2-elf/12.3.1/../../../../../H-x86_64-mingw32/nios2-elf/lib\libc.a(libc_a-strlen.o)
 .debug_loclists
                0x0000b971       0x5d c:/intelfpga_lite/23.1std/nios2eds/bin/gnu/h-x86_64-mingw32/bin/../lib/gcc/nios2-elf/12.3.1/../../../../../H-x86_64-mingw32/nios2-elf/lib\libc.a(libc_a-closer.o)
 .debug_loclists
                0x0000b9ce       0x73 c:/intelfpga_lite/23.1std/nios2eds/bin/gnu/h-x86_64-mingw32/bin/../lib/gcc/nios2-elf/12.3.1/../../../../../H-x86_64-mingw32/nios2-elf/lib\libc.a(libc_a-reent.o)
 .debug_loclists
                0x0000ba41       0x7b c:/intelfpga_lite/23.1std/nios2eds/bin/gnu/h-x86_64-mingw32/bin/../lib/gcc/nios2-elf/12.3.1/../../../../../H-x86_64-mingw32/nios2-elf/lib\libc.a(libc_a-fstatr.o)
 .debug_loclists
                0x0000babc       0x99 c:/intelfpga_lite/23.1std/nios2eds/bin/gnu/h-x86_64-mingw32/bin/../lib/gcc/nios2-elf/12.3.1/../../../../../H-x86_64-mingw32/nios2-elf/lib\libc.a(libc_a-lseekr.o)
 .debug_loclists
                0x0000bb55       0x99 c:/intelfpga_lite/23.1std/nios2eds/bin/gnu/h-x86_64-mingw32/bin/../lib/gcc/nios2-elf/12.3.1/../../../../../H-x86_64-mingw32/nios2-elf/lib\libc.a(libc_a-openr.o)
 .debug_loclists
                0x0000bbee       0x99 c:/intelfpga_lite/23.1std/nios2eds/bin/gnu/h-x86_64-mingw32/bin/../lib/gcc/nios2-elf/12.3.1/../../../../../H-x86_64-mingw32/nios2-elf/lib\libc.a(libc_a-readr.o)
 .debug_loclists
                0x0000bc87       0x99 c:/intelfpga_lite/23.1std/nios2eds/bin/gnu/h-x86_64-mingw32/bin/../lib/gcc/nios2-elf/12.3.1/../../../../../H-x86_64-mingw32/nios2-elf/lib\libc.a(libc_a-writer.o)
 .debug_loclists
                0x0000bd20      0x11b c:/intelfpga_lite/23.1std/nios2eds/bin/gnu/h-x86_64-mingw32/bin/../lib/gcc/nios2-elf/12.3.1/../../../../../H-x86_64-mingw32/nios2-elf/lib\libc.a(libc_a-__call_atexit.o)
 .debug_loclists
                0x0000be3b      0x44d c:/intelfpga_lite/23.1std/nios2eds/bin/gnu/h-x86_64-mingw32/bin/../lib/gcc/nios2-elf/12.3.1/../../../../../H-x86_64-mingw32/nios2-elf/lib\libc.a(libc_a-freer.o)
 .debug_loclists
                0x0000c288      0x96e c:/intelfpga_lite/23.1std/nios2eds/bin/gnu/h-x86_64-mingw32/bin/../lib/gcc/nios2-elf/12.3.1/../../../../../H-x86_64-mingw32/nios2-elf/lib\libc.a(libc_a-mallocr.o)
 .debug_loclists
                0x0000cbf6     0x2677 c:/intelfpga_lite/23.1std/nios2eds/bin/gnu/h-x86_64-mingw32/bin/../lib/gcc/nios2-elf/12.3.1/../../../../../H-x86_64-mingw32/nios2-elf/lib\libc.a(libc_a-vfprintf.o)
 .debug_loclists
                0x0000f26d     0x1c9c c:/intelfpga_lite/23.1std/nios2eds/bin/gnu/h-x86_64-mingw32/bin/../lib/gcc/nios2-elf/12.3.1/../../../../../H-x86_64-mingw32/nios2-elf/lib\libc.a(libc_a-vfiprintf.o)
 .debug_loclists
                0x00010f09       0x96 c:/intelfpga_lite/23.1std/nios2eds/bin/gnu/h-x86_64-mingw32/bin/../lib/gcc/nios2-elf/12.3.1/../../../../../H-x86_64-mingw32/nios2-elf/lib\libc.a(libc_a-flags.o)
 .debug_loclists
                0x00010f9f      0x4f0 c:/intelfpga_lite/23.1std/nios2eds/bin/gnu/h-x86_64-mingw32/bin/../lib/gcc/nios2-elf/12.3.1/../../../../../H-x86_64-mingw32/nios2-elf/lib\libc.a(libc_a-fvwrite.o)
 .debug_loclists
                0x0001148f      0x29d c:/intelfpga_lite/23.1std/nios2eds/bin/gnu/h-x86_64-mingw32/bin/../lib/gcc/nios2-elf/12.3.1/../../../../../H-x86_64-mingw32/nios2-elf/lib\libc.a(libc_a-makebuf.o)
 .debug_loclists
                0x0001172c      0x203 c:/intelfpga_lite/23.1std/nios2eds/bin/gnu/h-x86_64-mingw32/bin/../lib/gcc/nios2-elf/12.3.1/../../../../../H-x86_64-mingw32/nios2-elf/lib\libc.a(libc_a-putc.o)
 .debug_loclists
                0x0001192f      0x152 c:/intelfpga_lite/23.1std/nios2eds/bin/gnu/h-x86_64-mingw32/bin/../lib/gcc/nios2-elf/12.3.1/../../../../../H-x86_64-mingw32/nios2-elf/lib\libc.a(libc_a-wbuf.o)
 .debug_loclists
                0x00011a81       0x92 c:/intelfpga_lite/23.1std/nios2eds/bin/gnu/h-x86_64-mingw32/bin/../lib/gcc/nios2-elf/12.3.1/../../../../../H-x86_64-mingw32/nios2-elf/lib\libc.a(libc_a-wsetup.o)
 .debug_loclists
                0x00011b13      0x1d5 c:/intelfpga_lite/23.1std/nios2eds/bin/gnu/h-x86_64-mingw32/bin/../lib/gcc/nios2-elf/12.3.1/../../../../../H-x86_64-mingw32/nios2-elf/lib\libc.a(libc_a-fputwc.o)
 .debug_loclists
                0x00011ce8      0x18e c:/intelfpga_lite/23.1std/nios2eds/bin/gnu/h-x86_64-mingw32/bin/../lib/gcc/nios2-elf/12.3.1/../../../../../H-x86_64-mingw32/nios2-elf/lib\libc.a(libc_a-memchr.o)
 .debug_loclists
                0x00011e76      0x276 c:/intelfpga_lite/23.1std/nios2eds/bin/gnu/h-x86_64-mingw32/bin/../lib/gcc/nios2-elf/12.3.1/../../../../../H-x86_64-mingw32/nios2-elf/lib\libc.a(libc_a-memmove.o)
 .debug_loclists
                0x000120ec      0x126 c:/intelfpga_lite/23.1std/nios2eds/bin/gnu/h-x86_64-mingw32/bin/../lib/gcc/nios2-elf/12.3.1/../../../../../H-x86_64-mingw32/nios2-elf/lib\libc.a(libc_a-locale.o)
 .debug_loclists
                0x00012212       0x23 c:/intelfpga_lite/23.1std/nios2eds/bin/gnu/h-x86_64-mingw32/bin/../lib/gcc/nios2-elf/12.3.1/../../../../../H-x86_64-mingw32/nios2-elf/lib\libc.a(libc_a-localeconv.o)
 .debug_loclists
                0x00012235       0x5d c:/intelfpga_lite/23.1std/nios2eds/bin/gnu/h-x86_64-mingw32/bin/../lib/gcc/nios2-elf/12.3.1/../../../../../H-x86_64-mingw32/nios2-elf/lib\libc.a(libc_a-isattyr.o)
 .debug_loclists
                0x00012292       0x5d c:/intelfpga_lite/23.1std/nios2eds/bin/gnu/h-x86_64-mingw32/bin/../lib/gcc/nios2-elf/12.3.1/../../../../../H-x86_64-mingw32/nios2-elf/lib\libc.a(libc_a-sbrkr.o)
 .debug_loclists
                0x000122ef     0x24de c:/intelfpga_lite/23.1std/nios2eds/bin/gnu/h-x86_64-mingw32/bin/../lib/gcc/nios2-elf/12.3.1/../../../../../H-x86_64-mingw32/nios2-elf/lib\libc.a(libc_a-dtoa.o)
 .debug_loclists
                0x000147cd       0xb5 c:/intelfpga_lite/23.1std/nios2eds/bin/gnu/h-x86_64-mingw32/bin/../lib/gcc/nios2-elf/12.3.1/../../../../../H-x86_64-mingw32/nios2-elf/lib\libc.a(libc_a-mbtowc_r.o)
 .debug_loclists
                0x00014882     0x16b8 c:/intelfpga_lite/23.1std/nios2eds/bin/gnu/h-x86_64-mingw32/bin/../lib/gcc/nios2-elf/12.3.1/../../../../../H-x86_64-mingw32/nios2-elf/lib\libc.a(libc_a-mprec.o)
 .debug_loclists
                0x00015f3a      0xe45 c:/intelfpga_lite/23.1std/nios2eds/bin/gnu/h-x86_64-mingw32/bin/../lib/gcc/nios2-elf/12.3.1/../../../../../H-x86_64-mingw32/nios2-elf/lib\libc.a(libc_a-reallocr.o)
 .debug_loclists
                0x00016d7f       0x73 c:/intelfpga_lite/23.1std/nios2eds/bin/gnu/h-x86_64-mingw32/bin/../lib/gcc/nios2-elf/12.3.1/../../../../../H-x86_64-mingw32/nios2-elf/lib\libc.a(libc_a-wctomb_r.o)
 .debug_loclists
                0x00016df2      0x19d c:/intelfpga_lite/23.1std/nios2eds/bin/gnu/h-x86_64-mingw32/bin/../lib/gcc/nios2-elf/12.3.1/../../../../../H-x86_64-mingw32/nios2-elf/lib\libc.a(libc_a-wcrtomb.o)
 .debug_loclists
                0x00016f8f       0x60 c:/intelfpga_lite/23.1std/nios2eds/bin/gnu/h-x86_64-mingw32/bin/../lib/gcc/nios2-elf/12.3.1/../../../../../H-x86_64-mingw32/nios2-elf/lib\libc.a(libc_a-strcmp.o)
 .debug_loclists
                0x00016fef      0x104 c:/intelfpga_lite/23.1std/nios2eds/bin/gnu/h-x86_64-mingw32/bin/../lib/gcc/nios2-elf/12.3.1/../../../../../H-x86_64-mingw32/nios2-elf/lib\libc.a(libc_a-assert.o)
 .debug_loclists
                0x000170f3      0x272 c:/intelfpga_lite/23.1std/nios2eds/bin/gnu/h-x86_64-mingw32/bin/../lib/gcc/nios2-elf/12.3.1/../../../../../H-x86_64-mingw32/nios2-elf/lib\libc.a(libc_a-callocr.o)
 .debug_loclists
                0x00017365       0xe1 c:/intelfpga_lite/23.1std/nios2eds/bin/gnu/h-x86_64-mingw32/bin/../lib/gcc/nios2-elf/12.3.1/../../../../../H-x86_64-mingw32/nios2-elf/lib\libc.a(libc_a-fiprintf.o)
 .debug_loclists
                0x00017446       0x68 c:/intelfpga_lite/23.1std/nios2eds/bin/gnu/h-x86_64-mingw32/bin/../lib/gcc/nios2-elf/12.3.1/../../../../../H-x86_64-mingw32/nios2-elf/lib\libc.a(libc_a-vfiprintfr_1.o)
 .debug_loclists
                0x000174ae      0x501 c:/intelfpga_lite/23.1std/nios2eds/bin/gnu/h-x86_64-mingw32/bin/../lib/gcc/nios2-elf/12.3.1/../../../../../H-x86_64-mingw32/nios2-elf/lib\libc.a(libc_a-signal.o)
 .debug_loclists
                0x000179af       0x92 c:/intelfpga_lite/23.1std/nios2eds/bin/gnu/h-x86_64-mingw32/bin/../lib/gcc/nios2-elf/12.3.1/../../../../../H-x86_64-mingw32/nios2-elf/lib\libc.a(libc_a-signalr.o)
 .debug_loclists
                0x00017a41      0xd65 c:/intelfpga_lite/23.1std/nios2eds/bin/gnu/h-x86_64-mingw32/bin/../lib/gcc/nios2-elf/12.3.1\libgcc.a(_udivdi3.o)
 .debug_loclists
                0x000187a6      0xb8b c:/intelfpga_lite/23.1std/nios2eds/bin/gnu/h-x86_64-mingw32/bin/../lib/gcc/nios2-elf/12.3.1\libgcc.a(_umoddi3.o)
 .debug_loclists
                0x00019331      0x14a c:/intelfpga_lite/23.1std/nios2eds/bin/gnu/h-x86_64-mingw32/bin/../lib/gcc/nios2-elf/12.3.1\libgcc.a(floatunsidf.o)
 .debug_loclists
                0x0001947b       0xad c:/Users/pedro/OneDrive/Documentos/CNN-paralel/Software/c0_bsp/\libhal_bsp.a(alt_close.o)
 .debug_loclists
                0x00019528       0x5f c:/Users/pedro/OneDrive/Documentos/CNN-paralel/Software/c0_bsp/\libhal_bsp.a(alt_fstat.o)
 .debug_loclists
                0x00019587       0x3b c:/Users/pedro/OneDrive/Documentos/CNN-paralel/Software/c0_bsp/\libhal_bsp.a(alt_isatty.o)
 .debug_loclists
                0x000195c2       0xb0 c:/Users/pedro/OneDrive/Documentos/CNN-paralel/Software/c0_bsp/\libhal_bsp.a(alt_lseek.o)
 .debug_loclists
                0x00019672      0x1a8 c:/Users/pedro/OneDrive/Documentos/CNN-paralel/Software/c0_bsp/\libhal_bsp.a(alt_open.o)
 .debug_loclists
                0x0001981a       0xd2 c:/Users/pedro/OneDrive/Documentos/CNN-paralel/Software/c0_bsp/\libhal_bsp.a(alt_read.o)
 .debug_loclists
                0x000198ec       0x23 c:/Users/pedro/OneDrive/Documentos/CNN-paralel/Software/c0_bsp/\libhal_bsp.a(alt_release_fd.o)
 .debug_loclists
                0x0001990f       0x5a c:/Users/pedro/OneDrive/Documentos/CNN-paralel/Software/c0_bsp/\libhal_bsp.a(alt_sbrk.o)
 .debug_loclists
                0x00019969       0xca c:/Users/pedro/OneDrive/Documentos/CNN-paralel/Software/c0_bsp/\libhal_bsp.a(alt_write.o)
 .debug_loclists
                0x00019a33       0x33 c:/Users/pedro/OneDrive/Documentos/CNN-paralel/Software/c0_bsp/\libhal_bsp.a(alt_sys_init.o)
 .debug_loclists
                0x00019a66       0xc0 c:/Users/pedro/OneDrive/Documentos/CNN-paralel/Software/c0_bsp/\libhal_bsp.a(altera_avalon_jtag_uart_fd.o)
 .debug_loclists
                0x00019b26       0xbe c:/Users/pedro/OneDrive/Documentos/CNN-paralel/Software/c0_bsp/\libhal_bsp.a(altera_avalon_jtag_uart_read.o)
 .debug_loclists
                0x00019be4       0x78 c:/Users/pedro/OneDrive/Documentos/CNN-paralel/Software/c0_bsp/\libhal_bsp.a(altera_avalon_jtag_uart_write.o)
 .debug_loclists
                0x00019c5c      0x21a c:/Users/pedro/OneDrive/Documentos/CNN-paralel/Software/c0_bsp/\libhal_bsp.a(altera_hostfs.o)
 .debug_loclists
                0x00019e76       0x7e c:/Users/pedro/OneDrive/Documentos/CNN-paralel/Software/c0_bsp/\libhal_bsp.a(alt_find_dev.o)
 .debug_loclists
                0x00019ef4       0x5b c:/Users/pedro/OneDrive/Documentos/CNN-paralel/Software/c0_bsp/\libhal_bsp.a(alt_find_file.o)
 .debug_loclists
                0x00019f4f       0x17 c:/Users/pedro/OneDrive/Documentos/CNN-paralel/Software/c0_bsp/\libhal_bsp.a(alt_fs_reg.o)
 .debug_loclists
                0x00019f66       0x21 c:/Users/pedro/OneDrive/Documentos/CNN-paralel/Software/c0_bsp/\libhal_bsp.a(alt_get_fd.o)
 .debug_loclists
                0x00019f87       0xf3 c:/Users/pedro/OneDrive/Documentos/CNN-paralel/Software/c0_bsp/\libhal_bsp.a(alt_io_redirect.o)
 .debug_loclists
                0x0001a07a       0xe1 c:/intelfpga_lite/23.1std/nios2eds/bin/gnu/h-x86_64-mingw32/bin/../lib/gcc/nios2-elf/12.3.1/../../../../../H-x86_64-mingw32/nios2-elf/lib\libc.a(libc_a-memcmp.o)

.debug_line_str
                0x00000000     0x1f26
 .debug_line_str
                0x00000000       0xa4 obj/default/image.o
                                 0xef (size before relaxing)
 .debug_line_str
                0x000000a4      0x1aa obj/default/main.o
                                0x29f (size before relaxing)
 .debug_line_str
                0x0000024e      0x1c5 c:/intelfpga_lite/23.1std/nios2eds/bin/gnu/h-x86_64-mingw32/bin/../lib/gcc/nios2-elf/12.3.1/../../../../../H-x86_64-mingw32/nios2-elf/lib\libm.a(libm_a-w_exp.o)
                                0x25b (size before relaxing)
 .debug_line_str
                0x00000413       0x9b c:/intelfpga_lite/23.1std/nios2eds/bin/gnu/h-x86_64-mingw32/bin/../lib/gcc/nios2-elf/12.3.1/../../../../../H-x86_64-mingw32/nios2-elf/lib\libm.a(libm_a-s_finite.o)
                                0x248 (size before relaxing)
 .debug_line_str
                0x000004ae       0x41 c:/intelfpga_lite/23.1std/nios2eds/bin/gnu/h-x86_64-mingw32/bin/../lib/gcc/nios2-elf/12.3.1/../../../../../H-x86_64-mingw32/nios2-elf/lib\libm.a(libm_a-e_exp.o)
                                0x27d (size before relaxing)
 .debug_line_str
                0x000004ef       0x38 c:/intelfpga_lite/23.1std/nios2eds/bin/gnu/h-x86_64-mingw32/bin/../lib/gcc/nios2-elf/12.3.1/../../../../../H-x86_64-mingw32/nios2-elf/lib\libm.a(libm_a-math_err.o)
                                0x25c (size before relaxing)
 .debug_line_str
                0x00000527       0xe1 c:/intelfpga_lite/23.1std/nios2eds/bin/gnu/h-x86_64-mingw32/bin/../lib/gcc/nios2-elf/12.3.1\libgcc.a(lib2-divmod.o)
                                0x16b (size before relaxing)
 .debug_line_str
                0x00000608       0x60 c:/intelfpga_lite/23.1std/nios2eds/bin/gnu/h-x86_64-mingw32/bin/../lib/gcc/nios2-elf/12.3.1\libgcc.a(addsf3.o)
                                0x14e (size before relaxing)
 .debug_line_str
                0x00000668       0x30 c:/intelfpga_lite/23.1std/nios2eds/bin/gnu/h-x86_64-mingw32/bin/../lib/gcc/nios2-elf/12.3.1\libgcc.a(divsf3.o)
                                0x14e (size before relaxing)
 .debug_line_str
                0x00000698       0x2f c:/intelfpga_lite/23.1std/nios2eds/bin/gnu/h-x86_64-mingw32/bin/../lib/gcc/nios2-elf/12.3.1\libgcc.a(gesf2.o)
                                0x14b (size before relaxing)
 .debug_line_str
                0x000006c7       0x2f c:/intelfpga_lite/23.1std/nios2eds/bin/gnu/h-x86_64-mingw32/bin/../lib/gcc/nios2-elf/12.3.1\libgcc.a(lesf2.o)
                                0x14b (size before relaxing)
 .debug_line_str
                0x000006f6       0x3a c:/intelfpga_lite/23.1std/nios2eds/bin/gnu/h-x86_64-mingw32/bin/../lib/gcc/nios2-elf/12.3.1\libgcc.a(mulsf3.o)
                                0x158 (size before relaxing)
 .debug_line_str
                0x00000730       0x30 c:/intelfpga_lite/23.1std/nios2eds/bin/gnu/h-x86_64-mingw32/bin/../lib/gcc/nios2-elf/12.3.1\libgcc.a(subsf3.o)
                                0x14e (size before relaxing)
 .debug_line_str
                0x00000760       0x35 c:/intelfpga_lite/23.1std/nios2eds/bin/gnu/h-x86_64-mingw32/bin/../lib/gcc/nios2-elf/12.3.1\libgcc.a(floatunsisf.o)
                                0x167 (size before relaxing)
 .debug_line_str
                0x00000795       0x39 c:/intelfpga_lite/23.1std/nios2eds/bin/gnu/h-x86_64-mingw32/bin/../lib/gcc/nios2-elf/12.3.1\libgcc.a(adddf3.o)
                                0x14e (size before relaxing)
 .debug_line_str
                0x000007ce       0x30 c:/intelfpga_lite/23.1std/nios2eds/bin/gnu/h-x86_64-mingw32/bin/../lib/gcc/nios2-elf/12.3.1\libgcc.a(divdf3.o)
                                0x158 (size before relaxing)
 .debug_line_str
                0x000007fe       0x2f c:/intelfpga_lite/23.1std/nios2eds/bin/gnu/h-x86_64-mingw32/bin/../lib/gcc/nios2-elf/12.3.1\libgcc.a(eqdf2.o)
                                0x14b (size before relaxing)
 .debug_line_str
                0x0000082d       0x2f c:/intelfpga_lite/23.1std/nios2eds/bin/gnu/h-x86_64-mingw32/bin/../lib/gcc/nios2-elf/12.3.1\libgcc.a(gedf2.o)
                                0x14b (size before relaxing)
 .debug_line_str
                0x0000085c       0x2f c:/intelfpga_lite/23.1std/nios2eds/bin/gnu/h-x86_64-mingw32/bin/../lib/gcc/nios2-elf/12.3.1\libgcc.a(ledf2.o)
                                0x14b (size before relaxing)
 .debug_line_str
                0x0000088b       0x30 c:/intelfpga_lite/23.1std/nios2eds/bin/gnu/h-x86_64-mingw32/bin/../lib/gcc/nios2-elf/12.3.1\libgcc.a(muldf3.o)
                                0x158 (size before relaxing)
 .debug_line_str
                0x000008bb       0x30 c:/intelfpga_lite/23.1std/nios2eds/bin/gnu/h-x86_64-mingw32/bin/../lib/gcc/nios2-elf/12.3.1\libgcc.a(subdf3.o)
                                0x14e (size before relaxing)
 .debug_line_str
                0x000008eb       0x32 c:/intelfpga_lite/23.1std/nios2eds/bin/gnu/h-x86_64-mingw32/bin/../lib/gcc/nios2-elf/12.3.1\libgcc.a(unorddf2.o)
                                0x154 (size before relaxing)
 .debug_line_str
                0x0000091d       0x31 c:/intelfpga_lite/23.1std/nios2eds/bin/gnu/h-x86_64-mingw32/bin/../lib/gcc/nios2-elf/12.3.1\libgcc.a(fixdfsi.o)
                                0x15b (size before relaxing)
 .debug_line_str
                0x0000094e       0x33 c:/intelfpga_lite/23.1std/nios2eds/bin/gnu/h-x86_64-mingw32/bin/../lib/gcc/nios2-elf/12.3.1\libgcc.a(floatsidf.o)
                                0x161 (size before relaxing)
 .debug_line_str
                0x00000981       0x35 c:/intelfpga_lite/23.1std/nios2eds/bin/gnu/h-x86_64-mingw32/bin/../lib/gcc/nios2-elf/12.3.1\libgcc.a(extendsfdf2.o)
                                0x166 (size before relaxing)
 .debug_line_str
                0x000009b6       0x34 c:/intelfpga_lite/23.1std/nios2eds/bin/gnu/h-x86_64-mingw32/bin/../lib/gcc/nios2-elf/12.3.1\libgcc.a(truncdfsf2.o)
                                0x163 (size before relaxing)
 .debug_line_str
                0x000009ea       0x52 c:/intelfpga_lite/23.1std/nios2eds/bin/gnu/h-x86_64-mingw32/bin/../lib/gcc/nios2-elf/12.3.1\libgcc.a(_clzsi2.o)
                                0x142 (size before relaxing)
 .debug_line_str
                0x00000a3c      0x142 c:/intelfpga_lite/23.1std/nios2eds/bin/gnu/h-x86_64-mingw32/bin/../lib/gcc/nios2-elf/12.3.1\libgcc.a(_clz.o)
 .debug_line_str
                0x00000a3c       0xe4 c:/intelfpga_lite/23.1std/nios2eds/bin/gnu/h-x86_64-mingw32/bin/../lib/gcc/nios2-elf/12.3.1/../../../../../H-x86_64-mingw32/nios2-elf/lib\libc.a(libc_a-exit.o)
                                0x22e (size before relaxing)
 .debug_line_str
                0x00000b20       0xd6 c:/intelfpga_lite/23.1std/nios2eds/bin/gnu/h-x86_64-mingw32/bin/../lib/gcc/nios2-elf/12.3.1/../../../../../H-x86_64-mingw32/nios2-elf/lib\libc.a(libc_a-fclose.o)
                                0x2b6 (size before relaxing)
 .debug_line_str
                0x00000bf6       0x35 c:/intelfpga_lite/23.1std/nios2eds/bin/gnu/h-x86_64-mingw32/bin/../lib/gcc/nios2-elf/12.3.1/../../../../../H-x86_64-mingw32/nios2-elf/lib\libc.a(libc_a-fflush.o)
                                0x2b6 (size before relaxing)
 .debug_line_str
                0x00000c2b       0x3e c:/intelfpga_lite/23.1std/nios2eds/bin/gnu/h-x86_64-mingw32/bin/../lib/gcc/nios2-elf/12.3.1/../../../../../H-x86_64-mingw32/nios2-elf/lib\libc.a(libc_a-findfp.o)
                                0x2bf (size before relaxing)
 .debug_line_str
                0x00000c69       0x34 c:/intelfpga_lite/23.1std/nios2eds/bin/gnu/h-x86_64-mingw32/bin/../lib/gcc/nios2-elf/12.3.1/../../../../../H-x86_64-mingw32/nios2-elf/lib\libc.a(libc_a-fopen.o)
                                0x2b2 (size before relaxing)
 .debug_line_str
                0x00000c9d       0x34 c:/intelfpga_lite/23.1std/nios2eds/bin/gnu/h-x86_64-mingw32/bin/../lib/gcc/nios2-elf/12.3.1/../../../../../H-x86_64-mingw32/nios2-elf/lib\libc.a(libc_a-fread.o)
                                0x2bc (size before relaxing)
 .debug_line_str
                0x00000cd1       0x34 c:/intelfpga_lite/23.1std/nios2eds/bin/gnu/h-x86_64-mingw32/bin/../lib/gcc/nios2-elf/12.3.1/../../../../../H-x86_64-mingw32/nios2-elf/lib\libc.a(libc_a-fseek.o)
                                0x2a2 (size before relaxing)
 .debug_line_str
                0x00000d05       0x34 c:/intelfpga_lite/23.1std/nios2eds/bin/gnu/h-x86_64-mingw32/bin/../lib/gcc/nios2-elf/12.3.1/../../../../../H-x86_64-mingw32/nios2-elf/lib\libc.a(libc_a-fwalk.o)
                                0x2a2 (size before relaxing)
 .debug_line_str
                0x00000d39       0x3e c:/intelfpga_lite/23.1std/nios2eds/bin/gnu/h-x86_64-mingw32/bin/../lib/gcc/nios2-elf/12.3.1/../../../../../H-x86_64-mingw32/nios2-elf/lib\libc.a(libc_a-printf.o)
                                0x2b6 (size before relaxing)
 .debug_line_str
                0x00000d77       0x36 c:/intelfpga_lite/23.1std/nios2eds/bin/gnu/h-x86_64-mingw32/bin/../lib/gcc/nios2-elf/12.3.1/../../../../../H-x86_64-mingw32/nios2-elf/lib\libc.a(libc_a-putchar.o)
                                0x2a8 (size before relaxing)
 .debug_line_str
                0x00000dad       0x3d c:/intelfpga_lite/23.1std/nios2eds/bin/gnu/h-x86_64-mingw32/bin/../lib/gcc/nios2-elf/12.3.1/../../../../../H-x86_64-mingw32/nios2-elf/lib\libc.a(libc_a-puts.o)
                                0x2ba (size before relaxing)
 .debug_line_str
                0x00000dea       0x35 c:/intelfpga_lite/23.1std/nios2eds/bin/gnu/h-x86_64-mingw32/bin/../lib/gcc/nios2-elf/12.3.1/../../../../../H-x86_64-mingw32/nios2-elf/lib\libc.a(libc_a-refill.o)
                                0x2b6 (size before relaxing)
 .debug_line_str
                0x00000e1f       0x34 c:/intelfpga_lite/23.1std/nios2eds/bin/gnu/h-x86_64-mingw32/bin/../lib/gcc/nios2-elf/12.3.1/../../../../../H-x86_64-mingw32/nios2-elf/lib\libc.a(libc_a-stdio.o)
                                0x2aa (size before relaxing)
 .debug_line_str
                0x00000e53       0x53 c:/intelfpga_lite/23.1std/nios2eds/bin/gnu/h-x86_64-mingw32/bin/../lib/gcc/nios2-elf/12.3.1/../../../../../H-x86_64-mingw32/nios2-elf/lib\libc.a(libc_a-fseeko.o)
                                0x361 (size before relaxing)
 .debug_line_str
                0x00000ea6       0x63 c:/intelfpga_lite/23.1std/nios2eds/bin/gnu/h-x86_64-mingw32/bin/../lib/gcc/nios2-elf/12.3.1/../../../../../H-x86_64-mingw32/nios2-elf/lib\libc.a(libc_a-memcpy.o)
                                0x231 (size before relaxing)
 .debug_line_str
                0x00000f09       0x36 c:/intelfpga_lite/23.1std/nios2eds/bin/gnu/h-x86_64-mingw32/bin/../lib/gcc/nios2-elf/12.3.1/../../../../../H-x86_64-mingw32/nios2-elf/lib\libc.a(libc_a-memset.o)
                                0x231 (size before relaxing)
 .debug_line_str
                0x00000f3f       0x36 c:/intelfpga_lite/23.1std/nios2eds/bin/gnu/h-x86_64-mingw32/bin/../lib/gcc/nios2-elf/12.3.1/../../../../../H-x86_64-mingw32/nios2-elf/lib\libc.a(libc_a-strlen.o)
                                0x231 (size before relaxing)
 .debug_line_str
                0x00000f75       0x61 c:/intelfpga_lite/23.1std/nios2eds/bin/gnu/h-x86_64-mingw32/bin/../lib/gcc/nios2-elf/12.3.1/../../../../../H-x86_64-mingw32/nios2-elf/lib\libc.a(libc_a-closer.o)
                                0x2ae (size before relaxing)
 .debug_line_str
                0x00000fd6       0x34 c:/intelfpga_lite/23.1std/nios2eds/bin/gnu/h-x86_64-mingw32/bin/../lib/gcc/nios2-elf/12.3.1/../../../../../H-x86_64-mingw32/nios2-elf/lib\libc.a(libc_a-reent.o)
                                0x2a3 (size before relaxing)
 .debug_line_str
                0x0000100a       0x35 c:/intelfpga_lite/23.1std/nios2eds/bin/gnu/h-x86_64-mingw32/bin/../lib/gcc/nios2-elf/12.3.1/../../../../../H-x86_64-mingw32/nios2-elf/lib\libc.a(libc_a-impure.o)
                                0x239 (size before relaxing)
 .debug_line_str
                0x0000103f       0x35 c:/intelfpga_lite/23.1std/nios2eds/bin/gnu/h-x86_64-mingw32/bin/../lib/gcc/nios2-elf/12.3.1/../../../../../H-x86_64-mingw32/nios2-elf/lib\libc.a(libc_a-fstatr.o)
                                0x33f (size before relaxing)
 .debug_line_str
                0x00001074       0x35 c:/intelfpga_lite/23.1std/nios2eds/bin/gnu/h-x86_64-mingw32/bin/../lib/gcc/nios2-elf/12.3.1/../../../../../H-x86_64-mingw32/nios2-elf/lib\libc.a(libc_a-lseekr.o)
                                0x2b6 (size before relaxing)
 .debug_line_str
                0x000010a9       0x45 c:/intelfpga_lite/23.1std/nios2eds/bin/gnu/h-x86_64-mingw32/bin/../lib/gcc/nios2-elf/12.3.1/../../../../../H-x86_64-mingw32/nios2-elf/lib\libc.a(libc_a-openr.o)
                                0x2b3 (size before relaxing)
 .debug_line_str
                0x000010ee       0x34 c:/intelfpga_lite/23.1std/nios2eds/bin/gnu/h-x86_64-mingw32/bin/../lib/gcc/nios2-elf/12.3.1/../../../../../H-x86_64-mingw32/nios2-elf/lib\libc.a(libc_a-readr.o)
                                0x2ab (size before relaxing)
 .debug_line_str
                0x00001122       0x35 c:/intelfpga_lite/23.1std/nios2eds/bin/gnu/h-x86_64-mingw32/bin/../lib/gcc/nios2-elf/12.3.1/../../../../../H-x86_64-mingw32/nios2-elf/lib\libc.a(libc_a-writer.o)
                                0x2ae (size before relaxing)
 .debug_line_str
                0x00001157       0x60 c:/intelfpga_lite/23.1std/nios2eds/bin/gnu/h-x86_64-mingw32/bin/../lib/gcc/nios2-elf/12.3.1/../../../../../H-x86_64-mingw32/nios2-elf/lib\libc.a(libc_a-errno.o)
                                0x247 (size before relaxing)
 .debug_line_str
                0x000011b7       0x3d c:/intelfpga_lite/23.1std/nios2eds/bin/gnu/h-x86_64-mingw32/bin/../lib/gcc/nios2-elf/12.3.1/../../../../../H-x86_64-mingw32/nios2-elf/lib\libc.a(libc_a-__call_atexit.o)
                                0x1d3 (size before relaxing)
 .debug_line_str
                0x000011f4       0x40 c:/intelfpga_lite/23.1std/nios2eds/bin/gnu/h-x86_64-mingw32/bin/../lib/gcc/nios2-elf/12.3.1/../../../../../H-x86_64-mingw32/nios2-elf/lib\libc.a(libc_a-freer.o)
                                0x2a7 (size before relaxing)
 .debug_line_str
                0x00001234       0x37 c:/intelfpga_lite/23.1std/nios2eds/bin/gnu/h-x86_64-mingw32/bin/../lib/gcc/nios2-elf/12.3.1/../../../../../H-x86_64-mingw32/nios2-elf/lib\libc.a(libc_a-mallocr.o)
                                0x2ab (size before relaxing)
 .debug_line_str
                0x0000126b       0x96 c:/intelfpga_lite/23.1std/nios2eds/bin/gnu/h-x86_64-mingw32/bin/../lib/gcc/nios2-elf/12.3.1/../../../../../H-x86_64-mingw32/nios2-elf/lib\libc.a(libc_a-vfprintf.o)
                                0x3c6 (size before relaxing)
 .debug_line_str
                0x00001301       0x38 c:/intelfpga_lite/23.1std/nios2eds/bin/gnu/h-x86_64-mingw32/bin/../lib/gcc/nios2-elf/12.3.1/../../../../../H-x86_64-mingw32/nios2-elf/lib\libc.a(libc_a-vfiprintf.o)
                                0x3bd (size before relaxing)
 .debug_line_str
                0x00001339       0x34 c:/intelfpga_lite/23.1std/nios2eds/bin/gnu/h-x86_64-mingw32/bin/../lib/gcc/nios2-elf/12.3.1/../../../../../H-x86_64-mingw32/nios2-elf/lib\libc.a(libc_a-flags.o)
                                0x23f (size before relaxing)
 .debug_line_str
                0x0000136d       0x36 c:/intelfpga_lite/23.1std/nios2eds/bin/gnu/h-x86_64-mingw32/bin/../lib/gcc/nios2-elf/12.3.1/../../../../../H-x86_64-mingw32/nios2-elf/lib\libc.a(libc_a-fvwrite.o)
                                0x2c4 (size before relaxing)
 .debug_line_str
                0x000013a3       0x36 c:/intelfpga_lite/23.1std/nios2eds/bin/gnu/h-x86_64-mingw32/bin/../lib/gcc/nios2-elf/12.3.1/../../../../../H-x86_64-mingw32/nios2-elf/lib\libc.a(libc_a-makebuf.o)
                                0x353 (size before relaxing)
 .debug_line_str
                0x000013d9       0x33 c:/intelfpga_lite/23.1std/nios2eds/bin/gnu/h-x86_64-mingw32/bin/../lib/gcc/nios2-elf/12.3.1/../../../../../H-x86_64-mingw32/nios2-elf/lib\libc.a(libc_a-putc.o)
                                0x2a7 (size before relaxing)
 .debug_line_str
                0x0000140c       0x33 c:/intelfpga_lite/23.1std/nios2eds/bin/gnu/h-x86_64-mingw32/bin/../lib/gcc/nios2-elf/12.3.1/../../../../../H-x86_64-mingw32/nios2-elf/lib\libc.a(libc_a-wbuf.o)
                                0x2b1 (size before relaxing)
 .debug_line_str
                0x0000143f       0x35 c:/intelfpga_lite/23.1std/nios2eds/bin/gnu/h-x86_64-mingw32/bin/../lib/gcc/nios2-elf/12.3.1/../../../../../H-x86_64-mingw32/nios2-elf/lib\libc.a(libc_a-wsetup.o)
                                0x2b6 (size before relaxing)
 .debug_line_str
                0x00001474       0x35 c:/intelfpga_lite/23.1std/nios2eds/bin/gnu/h-x86_64-mingw32/bin/../lib/gcc/nios2-elf/12.3.1/../../../../../H-x86_64-mingw32/nios2-elf/lib\libc.a(libc_a-fputwc.o)
                                0x2be (size before relaxing)
 .debug_line_str
                0x000014a9       0x36 c:/intelfpga_lite/23.1std/nios2eds/bin/gnu/h-x86_64-mingw32/bin/../lib/gcc/nios2-elf/12.3.1/../../../../../H-x86_64-mingw32/nios2-elf/lib\libc.a(libc_a-memchr.o)
                                0x231 (size before relaxing)
 .debug_line_str
                0x000014df       0x37 c:/intelfpga_lite/23.1std/nios2eds/bin/gnu/h-x86_64-mingw32/bin/../lib/gcc/nios2-elf/12.3.1/../../../../../H-x86_64-mingw32/nios2-elf/lib\libc.a(libc_a-memmove.o)
                                0x234 (size before relaxing)
 .debug_line_str
                0x00001516       0xd9 c:/intelfpga_lite/23.1std/nios2eds/bin/gnu/h-x86_64-mingw32/bin/../lib/gcc/nios2-elf/12.3.1/../../../../../H-x86_64-mingw32/nios2-elf/lib\libc.a(libc_a-locale.o)
                                0x34c (size before relaxing)
 .debug_line_str
                0x000015ef       0x3a c:/intelfpga_lite/23.1std/nios2eds/bin/gnu/h-x86_64-mingw32/bin/../lib/gcc/nios2-elf/12.3.1/../../../../../H-x86_64-mingw32/nios2-elf/lib\libc.a(libc_a-localeconv.o)
                                0x2c8 (size before relaxing)
 .debug_line_str
                0x00001629       0x36 c:/intelfpga_lite/23.1std/nios2eds/bin/gnu/h-x86_64-mingw32/bin/../lib/gcc/nios2-elf/12.3.1/../../../../../H-x86_64-mingw32/nios2-elf/lib\libc.a(libc_a-isattyr.o)
                                0x2b1 (size before relaxing)
 .debug_line_str
                0x0000165f       0x34 c:/intelfpga_lite/23.1std/nios2eds/bin/gnu/h-x86_64-mingw32/bin/../lib/gcc/nios2-elf/12.3.1/../../../../../H-x86_64-mingw32/nios2-elf/lib\libc.a(libc_a-sbrkr.o)
                                0x2a2 (size before relaxing)
 .debug_line_str
                0x00001693       0x7c c:/intelfpga_lite/23.1std/nios2eds/bin/gnu/h-x86_64-mingw32/bin/../lib/gcc/nios2-elf/12.3.1/../../../../../H-x86_64-mingw32/nios2-elf/lib\libc.a(libc_a-dtoa.o)
                                0x384 (size before relaxing)
 .debug_line_str
                0x0000170f       0x38 c:/intelfpga_lite/23.1std/nios2eds/bin/gnu/h-x86_64-mingw32/bin/../lib/gcc/nios2-elf/12.3.1/../../../../../H-x86_64-mingw32/nios2-elf/lib\libc.a(libc_a-mbtowc_r.o)
                                0x302 (size before relaxing)
 .debug_line_str
                0x00001747       0x35 c:/intelfpga_lite/23.1std/nios2eds/bin/gnu/h-x86_64-mingw32/bin/../lib/gcc/nios2-elf/12.3.1/../../../../../H-x86_64-mingw32/nios2-elf/lib\libc.a(libc_a-mprec.o)
                                0x387 (size before relaxing)
 .debug_line_str
                0x0000177c       0x38 c:/intelfpga_lite/23.1std/nios2eds/bin/gnu/h-x86_64-mingw32/bin/../lib/gcc/nios2-elf/12.3.1/../../../../../H-x86_64-mingw32/nios2-elf/lib\libc.a(libc_a-reallocr.o)
                                0x24a (size before relaxing)
 .debug_line_str
                0x000017b4       0x38 c:/intelfpga_lite/23.1std/nios2eds/bin/gnu/h-x86_64-mingw32/bin/../lib/gcc/nios2-elf/12.3.1/../../../../../H-x86_64-mingw32/nios2-elf/lib\libc.a(libc_a-wctomb_r.o)
                                0x302 (size before relaxing)
 .debug_line_str
                0x000017ec       0x37 c:/intelfpga_lite/23.1std/nios2eds/bin/gnu/h-x86_64-mingw32/bin/../lib/gcc/nios2-elf/12.3.1/../../../../../H-x86_64-mingw32/nios2-elf/lib\libc.a(libc_a-wcrtomb.o)
                                0x2f6 (size before relaxing)
 .debug_line_str
                0x00001823       0x69 c:/intelfpga_lite/23.1std/nios2eds/bin/gnu/h-x86_64-mingw32/bin/../lib/gcc/nios2-elf/12.3.1/../../../../../H-x86_64-mingw32/nios2-elf/lib\libc.a(libc_a-ctype_.o)
                                0x1c1 (size before relaxing)
 .debug_line_str
                0x0000188c       0x36 c:/intelfpga_lite/23.1std/nios2eds/bin/gnu/h-x86_64-mingw32/bin/../lib/gcc/nios2-elf/12.3.1/../../../../../H-x86_64-mingw32/nios2-elf/lib\libc.a(libc_a-strcmp.o)
                                0x1bb (size before relaxing)
 .debug_line_str
                0x000018c2       0x36 c:/intelfpga_lite/23.1std/nios2eds/bin/gnu/h-x86_64-mingw32/bin/../lib/gcc/nios2-elf/12.3.1/../../../../../H-x86_64-mingw32/nios2-elf/lib\libc.a(libc_a-assert.o)
                                0x2b9 (size before relaxing)
 .debug_line_str
                0x000018f8       0x37 c:/intelfpga_lite/23.1std/nios2eds/bin/gnu/h-x86_64-mingw32/bin/../lib/gcc/nios2-elf/12.3.1/../../../../../H-x86_64-mingw32/nios2-elf/lib\libc.a(libc_a-callocr.o)
                                0x250 (size before relaxing)
 .debug_line_str
                0x0000192f       0x37 c:/intelfpga_lite/23.1std/nios2eds/bin/gnu/h-x86_64-mingw32/bin/../lib/gcc/nios2-elf/12.3.1/../../../../../H-x86_64-mingw32/nios2-elf/lib\libc.a(libc_a-fiprintf.o)
                                0x2b4 (size before relaxing)
 .debug_line_str
                0x00001966       0x3b c:/intelfpga_lite/23.1std/nios2eds/bin/gnu/h-x86_64-mingw32/bin/../lib/gcc/nios2-elf/12.3.1/../../../../../H-x86_64-mingw32/nios2-elf/lib\libc.a(libc_a-vfiprintfr_1.o)
                                0x2c0 (size before relaxing)
 .debug_line_str
                0x000019a1       0x3e c:/intelfpga_lite/23.1std/nios2eds/bin/gnu/h-x86_64-mingw32/bin/../lib/gcc/nios2-elf/12.3.1/../../../../../H-x86_64-mingw32/nios2-elf/lib\libc.a(libc_a-abort.o)
                                0x229 (size before relaxing)
 .debug_line_str
                0x000019df       0x63 c:/intelfpga_lite/23.1std/nios2eds/bin/gnu/h-x86_64-mingw32/bin/../lib/gcc/nios2-elf/12.3.1/../../../../../H-x86_64-mingw32/nios2-elf/lib\libc.a(libc_a-signal.o)
                                0x2c2 (size before relaxing)
 .debug_line_str
                0x00001a42       0x36 c:/intelfpga_lite/23.1std/nios2eds/bin/gnu/h-x86_64-mingw32/bin/../lib/gcc/nios2-elf/12.3.1/../../../../../H-x86_64-mingw32/nios2-elf/lib\libc.a(libc_a-signalr.o)
                                0x2c2 (size before relaxing)
 .debug_line_str
                0x00001a78      0x142 c:/intelfpga_lite/23.1std/nios2eds/bin/gnu/h-x86_64-mingw32/bin/../lib/gcc/nios2-elf/12.3.1\libgcc.a(_udivdi3.o)
 .debug_line_str
                0x00001a78      0x142 c:/intelfpga_lite/23.1std/nios2eds/bin/gnu/h-x86_64-mingw32/bin/../lib/gcc/nios2-elf/12.3.1\libgcc.a(_umoddi3.o)
 .debug_line_str
                0x00001a78       0x35 c:/intelfpga_lite/23.1std/nios2eds/bin/gnu/h-x86_64-mingw32/bin/../lib/gcc/nios2-elf/12.3.1\libgcc.a(floatunsidf.o)
                                0x167 (size before relaxing)
 .debug_line_str
                0x00001aad       0xaf c:/Users/pedro/OneDrive/Documentos/CNN-paralel/Software/c0_bsp/\libhal_bsp.a(alt_close.o)
                                0x16d (size before relaxing)
 .debug_line_str
                0x00001b5c       0x12 c:/Users/pedro/OneDrive/Documentos/CNN-paralel/Software/c0_bsp/\libhal_bsp.a(alt_dev.o)
                                0x23e (size before relaxing)
 .debug_line_str
                0x00001b6e       0x14 c:/Users/pedro/OneDrive/Documentos/CNN-paralel/Software/c0_bsp/\libhal_bsp.a(alt_errno.o)
                                0x126 (size before relaxing)
 .debug_line_str
                0x00001b82       0x14 c:/Users/pedro/OneDrive/Documentos/CNN-paralel/Software/c0_bsp/\libhal_bsp.a(alt_fstat.o)
                                0x1fa (size before relaxing)
 .debug_line_str
                0x00001b96       0x15 c:/Users/pedro/OneDrive/Documentos/CNN-paralel/Software/c0_bsp/\libhal_bsp.a(alt_getpid.o)
                                 0xb5 (size before relaxing)
 .debug_line_str
                0x00001bab       0x15 c:/Users/pedro/OneDrive/Documentos/CNN-paralel/Software/c0_bsp/\libhal_bsp.a(alt_isatty.o)
                                0x1fd (size before relaxing)
 .debug_line_str
                0x00001bc0       0x13 c:/Users/pedro/OneDrive/Documentos/CNN-paralel/Software/c0_bsp/\libhal_bsp.a(alt_kill.o)
                                0x12d (size before relaxing)
 .debug_line_str
                0x00001bd3       0x2a c:/Users/pedro/OneDrive/Documentos/CNN-paralel/Software/c0_bsp/\libhal_bsp.a(alt_load.o)
                                 0xea (size before relaxing)
 .debug_line_str
                0x00001bfd       0x14 c:/Users/pedro/OneDrive/Documentos/CNN-paralel/Software/c0_bsp/\libhal_bsp.a(alt_lseek.o)
                                0x17e (size before relaxing)
 .debug_line_str
                0x00001c11       0x3b c:/Users/pedro/OneDrive/Documentos/CNN-paralel/Software/c0_bsp/\libhal_bsp.a(alt_main.o)
                                 0xff (size before relaxing)
 .debug_line_str
                0x00001c4c       0x1a c:/Users/pedro/OneDrive/Documentos/CNN-paralel/Software/c0_bsp/\libhal_bsp.a(alt_malloc_lock.o)
                                0x194 (size before relaxing)
 .debug_line_str
                0x00001c66       0x13 c:/Users/pedro/OneDrive/Documentos/CNN-paralel/Software/c0_bsp/\libhal_bsp.a(alt_open.o)
                                0x10f (size before relaxing)
 .debug_line_str
                0x00001c79       0x13 c:/Users/pedro/OneDrive/Documentos/CNN-paralel/Software/c0_bsp/\libhal_bsp.a(alt_read.o)
                                0x266 (size before relaxing)
 .debug_line_str
                0x00001c8c       0x19 c:/Users/pedro/OneDrive/Documentos/CNN-paralel/Software/c0_bsp/\libhal_bsp.a(alt_release_fd.o)
                                0x115 (size before relaxing)
 .debug_line_str
                0x00001ca5       0x13 c:/Users/pedro/OneDrive/Documentos/CNN-paralel/Software/c0_bsp/\libhal_bsp.a(alt_sbrk.o)
                                0x121 (size before relaxing)
 .debug_line_str
                0x00001cb8       0x14 c:/Users/pedro/OneDrive/Documentos/CNN-paralel/Software/c0_bsp/\libhal_bsp.a(alt_write.o)
                                0x269 (size before relaxing)
 .debug_line_str
                0x00001ccc       0x8c c:/Users/pedro/OneDrive/Documentos/CNN-paralel/Software/c0_bsp/\libhal_bsp.a(alt_sys_init.o)
                                0x17b (size before relaxing)
 .debug_line_str
                0x00001d58       0x35 c:/Users/pedro/OneDrive/Documentos/CNN-paralel/Software/c0_bsp/\libhal_bsp.a(altera_avalon_jtag_uart_fd.o)
                                0x16c (size before relaxing)
 .debug_line_str
                0x00001d8d       0x2b c:/Users/pedro/OneDrive/Documentos/CNN-paralel/Software/c0_bsp/\libhal_bsp.a(altera_avalon_jtag_uart_read.o)
                                0x131 (size before relaxing)
 .debug_line_str
                0x00001db8       0x2c c:/Users/pedro/OneDrive/Documentos/CNN-paralel/Software/c0_bsp/\libhal_bsp.a(altera_avalon_jtag_uart_write.o)
                                0x134 (size before relaxing)
 .debug_line_str
                0x00001de4       0x1c c:/Users/pedro/OneDrive/Documentos/CNN-paralel/Software/c0_bsp/\libhal_bsp.a(altera_hostfs.o)
                                0x211 (size before relaxing)
 .debug_line_str
                0x00001e00       0x1f c:/Users/pedro/OneDrive/Documentos/CNN-paralel/Software/c0_bsp/\libhal_bsp.a(alt_dcache_flush_all.o)
                                 0xd3 (size before relaxing)
 .debug_line_str
                0x00001e1f       0x1f c:/Users/pedro/OneDrive/Documentos/CNN-paralel/Software/c0_bsp/\libhal_bsp.a(alt_dev_llist_insert.o)
                                0x118 (size before relaxing)
 .debug_line_str
                0x00001e3e       0x17 c:/Users/pedro/OneDrive/Documentos/CNN-paralel/Software/c0_bsp/\libhal_bsp.a(alt_find_dev.o)
                                0x1b2 (size before relaxing)
 .debug_line_str
                0x00001e55       0x18 c:/Users/pedro/OneDrive/Documentos/CNN-paralel/Software/c0_bsp/\libhal_bsp.a(alt_find_file.o)
                                0x1cf (size before relaxing)
 .debug_line_str
                0x00001e6d       0x15 c:/Users/pedro/OneDrive/Documentos/CNN-paralel/Software/c0_bsp/\libhal_bsp.a(alt_fs_reg.o)
                                0x109 (size before relaxing)
 .debug_line_str
                0x00001e82       0x15 c:/Users/pedro/OneDrive/Documentos/CNN-paralel/Software/c0_bsp/\libhal_bsp.a(alt_get_fd.o)
                                0x118 (size before relaxing)
 .debug_line_str
                0x00001e97       0x1f c:/Users/pedro/OneDrive/Documentos/CNN-paralel/Software/c0_bsp/\libhal_bsp.a(alt_icache_flush_all.o)
                                 0xd3 (size before relaxing)
 .debug_line_str
                0x00001eb6       0x1a c:/Users/pedro/OneDrive/Documentos/CNN-paralel/Software/c0_bsp/\libhal_bsp.a(alt_io_redirect.o)
                                0x267 (size before relaxing)
 .debug_line_str
                0x00001ed0       0x20 c:/Users/pedro/OneDrive/Documentos/CNN-paralel/Software/c0_bsp/\libhal_bsp.a(altera_nios2_gen2_irq.o)
                                 0xd6 (size before relaxing)
 .debug_line_str
                0x00001ef0       0x36 c:/intelfpga_lite/23.1std/nios2eds/bin/gnu/h-x86_64-mingw32/bin/../lib/gcc/nios2-elf/12.3.1/../../../../../H-x86_64-mingw32/nios2-elf/lib\libc.a(libc_a-memcmp.o)
                                0x231 (size before relaxing)

.debug_rnglists
                0x00000000     0x21d3
 .debug_rnglists
                0x00000000       0x35 obj/default/main.o
 .debug_rnglists
                0x00000035       0x14 c:/intelfpga_lite/23.1std/nios2eds/bin/gnu/h-x86_64-mingw32/bin/../lib/gcc/nios2-elf/12.3.1/../../../../../H-x86_64-mingw32/nios2-elf/lib\libm.a(libm_a-w_exp.o)
 .debug_rnglists
                0x00000049       0x13 c:/intelfpga_lite/23.1std/nios2eds/bin/gnu/h-x86_64-mingw32/bin/../lib/gcc/nios2-elf/12.3.1/../../../../../H-x86_64-mingw32/nios2-elf/lib\libm.a(libm_a-s_finite.o)
 .debug_rnglists
                0x0000005c       0x40 c:/intelfpga_lite/23.1std/nios2eds/bin/gnu/h-x86_64-mingw32/bin/../lib/gcc/nios2-elf/12.3.1/../../../../../H-x86_64-mingw32/nios2-elf/lib\libm.a(libm_a-e_exp.o)
 .debug_rnglists
                0x0000009c       0x45 c:/intelfpga_lite/23.1std/nios2eds/bin/gnu/h-x86_64-mingw32/bin/../lib/gcc/nios2-elf/12.3.1/../../../../../H-x86_64-mingw32/nios2-elf/lib\libm.a(libm_a-math_err.o)
 .debug_rnglists
                0x000000e1       0x3f c:/intelfpga_lite/23.1std/nios2eds/bin/gnu/h-x86_64-mingw32/bin/../lib/gcc/nios2-elf/12.3.1\libgcc.a(lib2-divmod.o)
 .debug_rnglists
                0x00000120      0x164 c:/intelfpga_lite/23.1std/nios2eds/bin/gnu/h-x86_64-mingw32/bin/../lib/gcc/nios2-elf/12.3.1\libgcc.a(addsf3.o)
 .debug_rnglists
                0x00000284       0x84 c:/intelfpga_lite/23.1std/nios2eds/bin/gnu/h-x86_64-mingw32/bin/../lib/gcc/nios2-elf/12.3.1\libgcc.a(divsf3.o)
 .debug_rnglists
                0x00000308       0x3d c:/intelfpga_lite/23.1std/nios2eds/bin/gnu/h-x86_64-mingw32/bin/../lib/gcc/nios2-elf/12.3.1\libgcc.a(gesf2.o)
 .debug_rnglists
                0x00000345       0x39 c:/intelfpga_lite/23.1std/nios2eds/bin/gnu/h-x86_64-mingw32/bin/../lib/gcc/nios2-elf/12.3.1\libgcc.a(lesf2.o)
 .debug_rnglists
                0x0000037e       0x85 c:/intelfpga_lite/23.1std/nios2eds/bin/gnu/h-x86_64-mingw32/bin/../lib/gcc/nios2-elf/12.3.1\libgcc.a(mulsf3.o)
 .debug_rnglists
                0x00000403      0x1b9 c:/intelfpga_lite/23.1std/nios2eds/bin/gnu/h-x86_64-mingw32/bin/../lib/gcc/nios2-elf/12.3.1\libgcc.a(subsf3.o)
 .debug_rnglists
                0x000005bc       0x56 c:/intelfpga_lite/23.1std/nios2eds/bin/gnu/h-x86_64-mingw32/bin/../lib/gcc/nios2-elf/12.3.1\libgcc.a(floatunsisf.o)
 .debug_rnglists
                0x00000612      0x239 c:/intelfpga_lite/23.1std/nios2eds/bin/gnu/h-x86_64-mingw32/bin/../lib/gcc/nios2-elf/12.3.1\libgcc.a(adddf3.o)
 .debug_rnglists
                0x0000084b      0x16a c:/intelfpga_lite/23.1std/nios2eds/bin/gnu/h-x86_64-mingw32/bin/../lib/gcc/nios2-elf/12.3.1\libgcc.a(divdf3.o)
 .debug_rnglists
                0x000009b5       0x23 c:/intelfpga_lite/23.1std/nios2eds/bin/gnu/h-x86_64-mingw32/bin/../lib/gcc/nios2-elf/12.3.1\libgcc.a(eqdf2.o)
 .debug_rnglists
                0x000009d8       0x3f c:/intelfpga_lite/23.1std/nios2eds/bin/gnu/h-x86_64-mingw32/bin/../lib/gcc/nios2-elf/12.3.1\libgcc.a(gedf2.o)
 .debug_rnglists
                0x00000a17       0x2f c:/intelfpga_lite/23.1std/nios2eds/bin/gnu/h-x86_64-mingw32/bin/../lib/gcc/nios2-elf/12.3.1\libgcc.a(ledf2.o)
 .debug_rnglists
                0x00000a46      0x1b4 c:/intelfpga_lite/23.1std/nios2eds/bin/gnu/h-x86_64-mingw32/bin/../lib/gcc/nios2-elf/12.3.1\libgcc.a(muldf3.o)
 .debug_rnglists
                0x00000bfa      0x2ba c:/intelfpga_lite/23.1std/nios2eds/bin/gnu/h-x86_64-mingw32/bin/../lib/gcc/nios2-elf/12.3.1\libgcc.a(subdf3.o)
 .debug_rnglists
                0x00000eb4       0x23 c:/intelfpga_lite/23.1std/nios2eds/bin/gnu/h-x86_64-mingw32/bin/../lib/gcc/nios2-elf/12.3.1\libgcc.a(unorddf2.o)
 .debug_rnglists
                0x00000ed7       0x13 c:/intelfpga_lite/23.1std/nios2eds/bin/gnu/h-x86_64-mingw32/bin/../lib/gcc/nios2-elf/12.3.1\libgcc.a(fixdfsi.o)
 .debug_rnglists
                0x00000eea       0x5f c:/intelfpga_lite/23.1std/nios2eds/bin/gnu/h-x86_64-mingw32/bin/../lib/gcc/nios2-elf/12.3.1\libgcc.a(floatsidf.o)
 .debug_rnglists
                0x00000f49       0x50 c:/intelfpga_lite/23.1std/nios2eds/bin/gnu/h-x86_64-mingw32/bin/../lib/gcc/nios2-elf/12.3.1\libgcc.a(extendsfdf2.o)
 .debug_rnglists
                0x00000f99       0x55 c:/intelfpga_lite/23.1std/nios2eds/bin/gnu/h-x86_64-mingw32/bin/../lib/gcc/nios2-elf/12.3.1\libgcc.a(truncdfsf2.o)
 .debug_rnglists
                0x00000fee       0x16 c:/intelfpga_lite/23.1std/nios2eds/bin/gnu/h-x86_64-mingw32/bin/../lib/gcc/nios2-elf/12.3.1\libgcc.a(_clzsi2.o)
 .debug_rnglists
                0x00001004       0x13 c:/intelfpga_lite/23.1std/nios2eds/bin/gnu/h-x86_64-mingw32/bin/../lib/gcc/nios2-elf/12.3.1/../../../../../H-x86_64-mingw32/nios2-elf/lib\libc.a(libc_a-exit.o)
 .debug_rnglists
                0x00001017       0x28 c:/intelfpga_lite/23.1std/nios2eds/bin/gnu/h-x86_64-mingw32/bin/../lib/gcc/nios2-elf/12.3.1/../../../../../H-x86_64-mingw32/nios2-elf/lib\libc.a(libc_a-fclose.o)
 .debug_rnglists
                0x0000103f       0x83 c:/intelfpga_lite/23.1std/nios2eds/bin/gnu/h-x86_64-mingw32/bin/../lib/gcc/nios2-elf/12.3.1/../../../../../H-x86_64-mingw32/nios2-elf/lib\libc.a(libc_a-fflush.o)
 .debug_rnglists
                0x000010c2       0xb5 c:/intelfpga_lite/23.1std/nios2eds/bin/gnu/h-x86_64-mingw32/bin/../lib/gcc/nios2-elf/12.3.1/../../../../../H-x86_64-mingw32/nios2-elf/lib\libc.a(libc_a-findfp.o)
 .debug_rnglists
                0x00001177       0x1a c:/intelfpga_lite/23.1std/nios2eds/bin/gnu/h-x86_64-mingw32/bin/../lib/gcc/nios2-elf/12.3.1/../../../../../H-x86_64-mingw32/nios2-elf/lib\libc.a(libc_a-fopen.o)
 .debug_rnglists
                0x00001191       0x4f c:/intelfpga_lite/23.1std/nios2eds/bin/gnu/h-x86_64-mingw32/bin/../lib/gcc/nios2-elf/12.3.1/../../../../../H-x86_64-mingw32/nios2-elf/lib\libc.a(libc_a-fread.o)
 .debug_rnglists
                0x000011e0       0x28 c:/intelfpga_lite/23.1std/nios2eds/bin/gnu/h-x86_64-mingw32/bin/../lib/gcc/nios2-elf/12.3.1/../../../../../H-x86_64-mingw32/nios2-elf/lib\libc.a(libc_a-fseek.o)
 .debug_rnglists
                0x00001208       0x14 c:/intelfpga_lite/23.1std/nios2eds/bin/gnu/h-x86_64-mingw32/bin/../lib/gcc/nios2-elf/12.3.1/../../../../../H-x86_64-mingw32/nios2-elf/lib\libc.a(libc_a-fwalk.o)
 .debug_rnglists
                0x0000121c       0x19 c:/intelfpga_lite/23.1std/nios2eds/bin/gnu/h-x86_64-mingw32/bin/../lib/gcc/nios2-elf/12.3.1/../../../../../H-x86_64-mingw32/nios2-elf/lib\libc.a(libc_a-printf.o)
 .debug_rnglists
                0x00001235       0x19 c:/intelfpga_lite/23.1std/nios2eds/bin/gnu/h-x86_64-mingw32/bin/../lib/gcc/nios2-elf/12.3.1/../../../../../H-x86_64-mingw32/nios2-elf/lib\libc.a(libc_a-putchar.o)
 .debug_rnglists
                0x0000124e       0x26 c:/intelfpga_lite/23.1std/nios2eds/bin/gnu/h-x86_64-mingw32/bin/../lib/gcc/nios2-elf/12.3.1/../../../../../H-x86_64-mingw32/nios2-elf/lib\libc.a(libc_a-puts.o)
 .debug_rnglists
                0x00001274       0x3a c:/intelfpga_lite/23.1std/nios2eds/bin/gnu/h-x86_64-mingw32/bin/../lib/gcc/nios2-elf/12.3.1/../../../../../H-x86_64-mingw32/nios2-elf/lib\libc.a(libc_a-refill.o)
 .debug_rnglists
                0x000012ae       0x2c c:/intelfpga_lite/23.1std/nios2eds/bin/gnu/h-x86_64-mingw32/bin/../lib/gcc/nios2-elf/12.3.1/../../../../../H-x86_64-mingw32/nios2-elf/lib\libc.a(libc_a-stdio.o)
 .debug_rnglists
                0x000012da       0x3c c:/intelfpga_lite/23.1std/nios2eds/bin/gnu/h-x86_64-mingw32/bin/../lib/gcc/nios2-elf/12.3.1/../../../../../H-x86_64-mingw32/nios2-elf/lib\libc.a(libc_a-fseeko.o)
 .debug_rnglists
                0x00001316       0x14 c:/intelfpga_lite/23.1std/nios2eds/bin/gnu/h-x86_64-mingw32/bin/../lib/gcc/nios2-elf/12.3.1/../../../../../H-x86_64-mingw32/nios2-elf/lib\libc.a(libc_a-memcpy.o)
 .debug_rnglists
                0x0000132a       0x14 c:/intelfpga_lite/23.1std/nios2eds/bin/gnu/h-x86_64-mingw32/bin/../lib/gcc/nios2-elf/12.3.1/../../../../../H-x86_64-mingw32/nios2-elf/lib\libc.a(libc_a-memset.o)
 .debug_rnglists
                0x0000133e       0x14 c:/intelfpga_lite/23.1std/nios2eds/bin/gnu/h-x86_64-mingw32/bin/../lib/gcc/nios2-elf/12.3.1/../../../../../H-x86_64-mingw32/nios2-elf/lib\libc.a(libc_a-strlen.o)
 .debug_rnglists
                0x00001352       0x13 c:/intelfpga_lite/23.1std/nios2eds/bin/gnu/h-x86_64-mingw32/bin/../lib/gcc/nios2-elf/12.3.1/../../../../../H-x86_64-mingw32/nios2-elf/lib\libc.a(libc_a-closer.o)
 .debug_rnglists
                0x00001365       0x14 c:/intelfpga_lite/23.1std/nios2eds/bin/gnu/h-x86_64-mingw32/bin/../lib/gcc/nios2-elf/12.3.1/../../../../../H-x86_64-mingw32/nios2-elf/lib\libc.a(libc_a-reent.o)
 .debug_rnglists
                0x00001379       0x13 c:/intelfpga_lite/23.1std/nios2eds/bin/gnu/h-x86_64-mingw32/bin/../lib/gcc/nios2-elf/12.3.1/../../../../../H-x86_64-mingw32/nios2-elf/lib\libc.a(libc_a-fstatr.o)
 .debug_rnglists
                0x0000138c       0x13 c:/intelfpga_lite/23.1std/nios2eds/bin/gnu/h-x86_64-mingw32/bin/../lib/gcc/nios2-elf/12.3.1/../../../../../H-x86_64-mingw32/nios2-elf/lib\libc.a(libc_a-lseekr.o)
 .debug_rnglists
                0x0000139f       0x13 c:/intelfpga_lite/23.1std/nios2eds/bin/gnu/h-x86_64-mingw32/bin/../lib/gcc/nios2-elf/12.3.1/../../../../../H-x86_64-mingw32/nios2-elf/lib\libc.a(libc_a-openr.o)
 .debug_rnglists
                0x000013b2       0x13 c:/intelfpga_lite/23.1std/nios2eds/bin/gnu/h-x86_64-mingw32/bin/../lib/gcc/nios2-elf/12.3.1/../../../../../H-x86_64-mingw32/nios2-elf/lib\libc.a(libc_a-readr.o)
 .debug_rnglists
                0x000013c5       0x13 c:/intelfpga_lite/23.1std/nios2eds/bin/gnu/h-x86_64-mingw32/bin/../lib/gcc/nios2-elf/12.3.1/../../../../../H-x86_64-mingw32/nios2-elf/lib\libc.a(libc_a-writer.o)
 .debug_rnglists
                0x000013d8       0x13 c:/intelfpga_lite/23.1std/nios2eds/bin/gnu/h-x86_64-mingw32/bin/../lib/gcc/nios2-elf/12.3.1/../../../../../H-x86_64-mingw32/nios2-elf/lib\libc.a(libc_a-errno.o)
 .debug_rnglists
                0x000013eb       0x2a c:/intelfpga_lite/23.1std/nios2eds/bin/gnu/h-x86_64-mingw32/bin/../lib/gcc/nios2-elf/12.3.1/../../../../../H-x86_64-mingw32/nios2-elf/lib\libc.a(libc_a-__call_atexit.o)
 .debug_rnglists
                0x00001415       0x1b c:/intelfpga_lite/23.1std/nios2eds/bin/gnu/h-x86_64-mingw32/bin/../lib/gcc/nios2-elf/12.3.1/../../../../../H-x86_64-mingw32/nios2-elf/lib\libc.a(libc_a-freer.o)
 .debug_rnglists
                0x00001430       0x46 c:/intelfpga_lite/23.1std/nios2eds/bin/gnu/h-x86_64-mingw32/bin/../lib/gcc/nios2-elf/12.3.1/../../../../../H-x86_64-mingw32/nios2-elf/lib\libc.a(libc_a-mallocr.o)
 .debug_rnglists
                0x00001476      0x136 c:/intelfpga_lite/23.1std/nios2eds/bin/gnu/h-x86_64-mingw32/bin/../lib/gcc/nios2-elf/12.3.1/../../../../../H-x86_64-mingw32/nios2-elf/lib\libc.a(libc_a-vfprintf.o)
 .debug_rnglists
                0x000015ac       0xe6 c:/intelfpga_lite/23.1std/nios2eds/bin/gnu/h-x86_64-mingw32/bin/../lib/gcc/nios2-elf/12.3.1/../../../../../H-x86_64-mingw32/nios2-elf/lib\libc.a(libc_a-vfiprintf.o)
 .debug_rnglists
                0x00001692       0x14 c:/intelfpga_lite/23.1std/nios2eds/bin/gnu/h-x86_64-mingw32/bin/../lib/gcc/nios2-elf/12.3.1/../../../../../H-x86_64-mingw32/nios2-elf/lib\libc.a(libc_a-flags.o)
 .debug_rnglists
                0x000016a6       0x35 c:/intelfpga_lite/23.1std/nios2eds/bin/gnu/h-x86_64-mingw32/bin/../lib/gcc/nios2-elf/12.3.1/../../../../../H-x86_64-mingw32/nios2-elf/lib\libc.a(libc_a-fvwrite.o)
 .debug_rnglists
                0x000016db       0x58 c:/intelfpga_lite/23.1std/nios2eds/bin/gnu/h-x86_64-mingw32/bin/../lib/gcc/nios2-elf/12.3.1/../../../../../H-x86_64-mingw32/nios2-elf/lib\libc.a(libc_a-makebuf.o)
 .debug_rnglists
                0x00001733       0x3d c:/intelfpga_lite/23.1std/nios2eds/bin/gnu/h-x86_64-mingw32/bin/../lib/gcc/nios2-elf/12.3.1/../../../../../H-x86_64-mingw32/nios2-elf/lib\libc.a(libc_a-putc.o)
 .debug_rnglists
                0x00001770       0x2e c:/intelfpga_lite/23.1std/nios2eds/bin/gnu/h-x86_64-mingw32/bin/../lib/gcc/nios2-elf/12.3.1/../../../../../H-x86_64-mingw32/nios2-elf/lib\libc.a(libc_a-wbuf.o)
 .debug_rnglists
                0x0000179e       0x25 c:/intelfpga_lite/23.1std/nios2eds/bin/gnu/h-x86_64-mingw32/bin/../lib/gcc/nios2-elf/12.3.1/../../../../../H-x86_64-mingw32/nios2-elf/lib\libc.a(libc_a-wsetup.o)
 .debug_rnglists
                0x000017c3       0x3b c:/intelfpga_lite/23.1std/nios2eds/bin/gnu/h-x86_64-mingw32/bin/../lib/gcc/nios2-elf/12.3.1/../../../../../H-x86_64-mingw32/nios2-elf/lib\libc.a(libc_a-fputwc.o)
 .debug_rnglists
                0x000017fe       0x14 c:/intelfpga_lite/23.1std/nios2eds/bin/gnu/h-x86_64-mingw32/bin/../lib/gcc/nios2-elf/12.3.1/../../../../../H-x86_64-mingw32/nios2-elf/lib\libc.a(libc_a-memchr.o)
 .debug_rnglists
                0x00001812       0x14 c:/intelfpga_lite/23.1std/nios2eds/bin/gnu/h-x86_64-mingw32/bin/../lib/gcc/nios2-elf/12.3.1/../../../../../H-x86_64-mingw32/nios2-elf/lib\libc.a(libc_a-memmove.o)
 .debug_rnglists
                0x00001826       0x34 c:/intelfpga_lite/23.1std/nios2eds/bin/gnu/h-x86_64-mingw32/bin/../lib/gcc/nios2-elf/12.3.1/../../../../../H-x86_64-mingw32/nios2-elf/lib\libc.a(libc_a-locale.o)
 .debug_rnglists
                0x0000185a       0x1f c:/intelfpga_lite/23.1std/nios2eds/bin/gnu/h-x86_64-mingw32/bin/../lib/gcc/nios2-elf/12.3.1/../../../../../H-x86_64-mingw32/nios2-elf/lib\libc.a(libc_a-localeconv.o)
 .debug_rnglists
                0x00001879       0x13 c:/intelfpga_lite/23.1std/nios2eds/bin/gnu/h-x86_64-mingw32/bin/../lib/gcc/nios2-elf/12.3.1/../../../../../H-x86_64-mingw32/nios2-elf/lib\libc.a(libc_a-isattyr.o)
 .debug_rnglists
                0x0000188c       0x13 c:/intelfpga_lite/23.1std/nios2eds/bin/gnu/h-x86_64-mingw32/bin/../lib/gcc/nios2-elf/12.3.1/../../../../../H-x86_64-mingw32/nios2-elf/lib\libc.a(libc_a-sbrkr.o)
 .debug_rnglists
                0x0000189f       0x3c c:/intelfpga_lite/23.1std/nios2eds/bin/gnu/h-x86_64-mingw32/bin/../lib/gcc/nios2-elf/12.3.1/../../../../../H-x86_64-mingw32/nios2-elf/lib\libc.a(libc_a-dtoa.o)
 .debug_rnglists
                0x000018db       0x19 c:/intelfpga_lite/23.1std/nios2eds/bin/gnu/h-x86_64-mingw32/bin/../lib/gcc/nios2-elf/12.3.1/../../../../../H-x86_64-mingw32/nios2-elf/lib\libc.a(libc_a-mbtowc_r.o)
 .debug_rnglists
                0x000018f4      0x124 c:/intelfpga_lite/23.1std/nios2eds/bin/gnu/h-x86_64-mingw32/bin/../lib/gcc/nios2-elf/12.3.1/../../../../../H-x86_64-mingw32/nios2-elf/lib\libc.a(libc_a-mprec.o)
 .debug_rnglists
                0x00001a18       0xef c:/intelfpga_lite/23.1std/nios2eds/bin/gnu/h-x86_64-mingw32/bin/../lib/gcc/nios2-elf/12.3.1/../../../../../H-x86_64-mingw32/nios2-elf/lib\libc.a(libc_a-reallocr.o)
 .debug_rnglists
                0x00001b07       0x19 c:/intelfpga_lite/23.1std/nios2eds/bin/gnu/h-x86_64-mingw32/bin/../lib/gcc/nios2-elf/12.3.1/../../../../../H-x86_64-mingw32/nios2-elf/lib\libc.a(libc_a-wctomb_r.o)
 .debug_rnglists
                0x00001b20       0x1a c:/intelfpga_lite/23.1std/nios2eds/bin/gnu/h-x86_64-mingw32/bin/../lib/gcc/nios2-elf/12.3.1/../../../../../H-x86_64-mingw32/nios2-elf/lib\libc.a(libc_a-wcrtomb.o)
 .debug_rnglists
                0x00001b3a       0x14 c:/intelfpga_lite/23.1std/nios2eds/bin/gnu/h-x86_64-mingw32/bin/../lib/gcc/nios2-elf/12.3.1/../../../../../H-x86_64-mingw32/nios2-elf/lib\libc.a(libc_a-strcmp.o)
 .debug_rnglists
                0x00001b4e       0x19 c:/intelfpga_lite/23.1std/nios2eds/bin/gnu/h-x86_64-mingw32/bin/../lib/gcc/nios2-elf/12.3.1/../../../../../H-x86_64-mingw32/nios2-elf/lib\libc.a(libc_a-assert.o)
 .debug_rnglists
                0x00001b67       0x3d c:/intelfpga_lite/23.1std/nios2eds/bin/gnu/h-x86_64-mingw32/bin/../lib/gcc/nios2-elf/12.3.1/../../../../../H-x86_64-mingw32/nios2-elf/lib\libc.a(libc_a-callocr.o)
 .debug_rnglists
                0x00001ba4       0x19 c:/intelfpga_lite/23.1std/nios2eds/bin/gnu/h-x86_64-mingw32/bin/../lib/gcc/nios2-elf/12.3.1/../../../../../H-x86_64-mingw32/nios2-elf/lib\libc.a(libc_a-fiprintf.o)
 .debug_rnglists
                0x00001bbd       0x13 c:/intelfpga_lite/23.1std/nios2eds/bin/gnu/h-x86_64-mingw32/bin/../lib/gcc/nios2-elf/12.3.1/../../../../../H-x86_64-mingw32/nios2-elf/lib\libc.a(libc_a-vfiprintfr_1.o)
 .debug_rnglists
                0x00001bd0       0x13 c:/intelfpga_lite/23.1std/nios2eds/bin/gnu/h-x86_64-mingw32/bin/../lib/gcc/nios2-elf/12.3.1/../../../../../H-x86_64-mingw32/nios2-elf/lib\libc.a(libc_a-abort.o)
 .debug_rnglists
                0x00001be3       0x94 c:/intelfpga_lite/23.1std/nios2eds/bin/gnu/h-x86_64-mingw32/bin/../lib/gcc/nios2-elf/12.3.1/../../../../../H-x86_64-mingw32/nios2-elf/lib\libc.a(libc_a-signal.o)
 .debug_rnglists
                0x00001c77       0x19 c:/intelfpga_lite/23.1std/nios2eds/bin/gnu/h-x86_64-mingw32/bin/../lib/gcc/nios2-elf/12.3.1/../../../../../H-x86_64-mingw32/nios2-elf/lib\libc.a(libc_a-signalr.o)
 .debug_rnglists
                0x00001c90      0x101 c:/intelfpga_lite/23.1std/nios2eds/bin/gnu/h-x86_64-mingw32/bin/../lib/gcc/nios2-elf/12.3.1\libgcc.a(_udivdi3.o)
 .debug_rnglists
                0x00001d91       0xd0 c:/intelfpga_lite/23.1std/nios2eds/bin/gnu/h-x86_64-mingw32/bin/../lib/gcc/nios2-elf/12.3.1\libgcc.a(_umoddi3.o)
 .debug_rnglists
                0x00001e61       0x5a c:/intelfpga_lite/23.1std/nios2eds/bin/gnu/h-x86_64-mingw32/bin/../lib/gcc/nios2-elf/12.3.1\libgcc.a(floatunsidf.o)
 .debug_rnglists
                0x00001ebb       0x2c c:/Users/pedro/OneDrive/Documentos/CNN-paralel/Software/c0_bsp/\libhal_bsp.a(alt_close.o)
 .debug_rnglists
                0x00001ee7       0x13 c:/Users/pedro/OneDrive/Documentos/CNN-paralel/Software/c0_bsp/\libhal_bsp.a(alt_dev.o)
 .debug_rnglists
                0x00001efa       0x1f c:/Users/pedro/OneDrive/Documentos/CNN-paralel/Software/c0_bsp/\libhal_bsp.a(alt_fstat.o)
 .debug_rnglists
                0x00001f19       0x13 c:/Users/pedro/OneDrive/Documentos/CNN-paralel/Software/c0_bsp/\libhal_bsp.a(alt_getpid.o)
 .debug_rnglists
                0x00001f2c       0x1f c:/Users/pedro/OneDrive/Documentos/CNN-paralel/Software/c0_bsp/\libhal_bsp.a(alt_isatty.o)
 .debug_rnglists
                0x00001f4b       0x1a c:/Users/pedro/OneDrive/Documentos/CNN-paralel/Software/c0_bsp/\libhal_bsp.a(alt_kill.o)
 .debug_rnglists
                0x00001f65       0x1a c:/Users/pedro/OneDrive/Documentos/CNN-paralel/Software/c0_bsp/\libhal_bsp.a(alt_load.o)
 .debug_rnglists
                0x00001f7f       0x20 c:/Users/pedro/OneDrive/Documentos/CNN-paralel/Software/c0_bsp/\libhal_bsp.a(alt_lseek.o)
 .debug_rnglists
                0x00001f9f       0x13 c:/Users/pedro/OneDrive/Documentos/CNN-paralel/Software/c0_bsp/\libhal_bsp.a(alt_main.o)
 .debug_rnglists
                0x00001fb2       0x19 c:/Users/pedro/OneDrive/Documentos/CNN-paralel/Software/c0_bsp/\libhal_bsp.a(alt_malloc_lock.o)
 .debug_rnglists
                0x00001fcb       0x2e c:/Users/pedro/OneDrive/Documentos/CNN-paralel/Software/c0_bsp/\libhal_bsp.a(alt_open.o)
 .debug_rnglists
                0x00001ff9       0x1a c:/Users/pedro/OneDrive/Documentos/CNN-paralel/Software/c0_bsp/\libhal_bsp.a(alt_read.o)
 .debug_rnglists
                0x00002013       0x13 c:/Users/pedro/OneDrive/Documentos/CNN-paralel/Software/c0_bsp/\libhal_bsp.a(alt_release_fd.o)
 .debug_rnglists
                0x00002026       0x13 c:/Users/pedro/OneDrive/Documentos/CNN-paralel/Software/c0_bsp/\libhal_bsp.a(alt_sbrk.o)
 .debug_rnglists
                0x00002039       0x1a c:/Users/pedro/OneDrive/Documentos/CNN-paralel/Software/c0_bsp/\libhal_bsp.a(alt_write.o)
 .debug_rnglists
                0x00002053       0x28 c:/Users/pedro/OneDrive/Documentos/CNN-paralel/Software/c0_bsp/\libhal_bsp.a(alt_sys_init.o)
 .debug_rnglists
                0x0000207b       0x19 c:/Users/pedro/OneDrive/Documentos/CNN-paralel/Software/c0_bsp/\libhal_bsp.a(altera_avalon_jtag_uart_fd.o)
 .debug_rnglists
                0x00002094       0x22 c:/Users/pedro/OneDrive/Documentos/CNN-paralel/Software/c0_bsp/\libhal_bsp.a(altera_avalon_jtag_uart_read.o)
 .debug_rnglists
                0x000020b6       0x13 c:/Users/pedro/OneDrive/Documentos/CNN-paralel/Software/c0_bsp/\libhal_bsp.a(altera_avalon_jtag_uart_write.o)
 .debug_rnglists
                0x000020c9       0x3e c:/Users/pedro/OneDrive/Documentos/CNN-paralel/Software/c0_bsp/\libhal_bsp.a(altera_hostfs.o)
 .debug_rnglists
                0x00002107       0x13 c:/Users/pedro/OneDrive/Documentos/CNN-paralel/Software/c0_bsp/\libhal_bsp.a(alt_dcache_flush_all.o)
 .debug_rnglists
                0x0000211a       0x1a c:/Users/pedro/OneDrive/Documentos/CNN-paralel/Software/c0_bsp/\libhal_bsp.a(alt_dev_llist_insert.o)
 .debug_rnglists
                0x00002134       0x13 c:/Users/pedro/OneDrive/Documentos/CNN-paralel/Software/c0_bsp/\libhal_bsp.a(alt_find_dev.o)
 .debug_rnglists
                0x00002147       0x14 c:/Users/pedro/OneDrive/Documentos/CNN-paralel/Software/c0_bsp/\libhal_bsp.a(alt_find_file.o)
 .debug_rnglists
                0x0000215b       0x13 c:/Users/pedro/OneDrive/Documentos/CNN-paralel/Software/c0_bsp/\libhal_bsp.a(alt_fs_reg.o)
 .debug_rnglists
                0x0000216e       0x13 c:/Users/pedro/OneDrive/Documentos/CNN-paralel/Software/c0_bsp/\libhal_bsp.a(alt_get_fd.o)
 .debug_rnglists
                0x00002181       0x13 c:/Users/pedro/OneDrive/Documentos/CNN-paralel/Software/c0_bsp/\libhal_bsp.a(alt_icache_flush_all.o)
 .debug_rnglists
                0x00002194       0x19 c:/Users/pedro/OneDrive/Documentos/CNN-paralel/Software/c0_bsp/\libhal_bsp.a(alt_io_redirect.o)
 .debug_rnglists
                0x000021ad       0x13 c:/Users/pedro/OneDrive/Documentos/CNN-paralel/Software/c0_bsp/\libhal_bsp.a(altera_nios2_gen2_irq.o)
 .debug_rnglists
                0x000021c0       0x13 c:/intelfpga_lite/23.1std/nios2eds/bin/gnu/h-x86_64-mingw32/bin/../lib/gcc/nios2-elf/12.3.1/../../../../../H-x86_64-mingw32/nios2-elf/lib\libc.a(libc_a-memcmp.o)
